LX51 LINKER/LOCATER V4.66.30.0                                                          04/06/2017  12:39:39  PAGE 1


LX51 LINKER/LOCATER V4.66.30.0, INVOKED BY:
C:\SILICONLABS\SIMPLICITYSTUDIO\V3\DEVELOPER\TOOLCHAINS\KEIL_8051\9.53\BIN\LX51.EXE ./src/EFM8BB1_ADC_ExternalInput.OBJ,
>>  ./src/EFM8BB1_FlashPrimitives.OBJ, ./src/InitDevice.OBJ, ./src/Interrupts.OBJ, ./src/SILABS_STARTUP.OBJ, ./src/key.O
>> BJ, ./src/led.OBJ, ./src/logic.OBJ, ./src/wireless.OBJ, ./src/driver/key_driver.OBJ TO AIDIK_4CH.OMF.CRBUILD REMOVEUN
>> USED PRINT (.\aidik_4ch.m51) PAGEWIDTH (120) PAGELENGTH (65) CLASSES (CODE (C:0X0-C:0X1FFE), CONST (C:0X0-C:0X1FFE), 
>> ECODE (C:0X0-C:0X1FFE), HCONST (C:0X0-C:0X1FFE), XDATA (X:0X0-X:0XFF), HDATA (X:0X0-X:0XFF))


CPU MODE:     8051 MODE
MEMORY MODEL: SMALL


INPUT MODULES INCLUDED:
  ./src/EFM8BB1_ADC_ExternalInput.OBJ (EFM8BB1_ADC_EXTERNALINPUT)
         COMMENT TYPE 0: C51 V9.53.0.0
  ./src/EFM8BB1_FlashPrimitives.OBJ (EFM8BB1_FLASHPRIMITIVES)
         COMMENT TYPE 0: C51 V9.53.0.0
  ./src/InitDevice.OBJ (INITDEVICE)
         COMMENT TYPE 0: C51 V9.53.0.0
  ./src/Interrupts.OBJ (INTERRUPTS)
         COMMENT TYPE 0: C51 V9.53.0.0
  ./src/SILABS_STARTUP.OBJ (?C_STARTUP)
         COMMENT TYPE 0: AX51 V3.12.0.0
  ./src/key.OBJ (KEY)
         COMMENT TYPE 0: C51 V9.53.0.0
  ./src/led.OBJ (LED)
         COMMENT TYPE 0: C51 V9.53.0.0
  ./src/logic.OBJ (LOGIC)
         COMMENT TYPE 0: C51 V9.53.0.0
  ./src/wireless.OBJ (WIRELESS)
         COMMENT TYPE 0: C51 V9.53.0.0
  ./src/driver/key_driver.OBJ (KEY_DRIVER)
         COMMENT TYPE 0: C51 V9.53.0.0
  C:\SILICONLABS\SIMPLICITYSTUDIO\V3\DEVELOPER\TOOLCHAINS\KEIL_8051\9.53\LIB\C51S.LIB (?C_INIT)
         COMMENT TYPE 1: A51 / ASM51 Assembler
  C:\SILICONLABS\SIMPLICITYSTUDIO\V3\DEVELOPER\TOOLCHAINS\KEIL_8051\9.53\LIB\C51S.LIB (?C?COPY)
         COMMENT TYPE 1: A51 / ASM51 Assembler
  C:\SILICONLABS\SIMPLICITYSTUDIO\V3\DEVELOPER\TOOLCHAINS\KEIL_8051\9.53\LIB\C51S.LIB (?C?CSTOPTR)
         COMMENT TYPE 1: A51 / ASM51 Assembler
  C:\SILICONLABS\SIMPLICITYSTUDIO\V3\DEVELOPER\TOOLCHAINS\KEIL_8051\9.53\LIB\C51S.LIB (?C?IILDX)
         COMMENT TYPE 1: A51 / ASM51 Assembler
  C:\SILICONLABS\SIMPLICITYSTUDIO\V3\DEVELOPER\TOOLCHAINS\KEIL_8051\9.53\LIB\C51S.LIB (?C?LMUL)
         COMMENT TYPE 1: A51 / ASM51 Assembler
  C:\SILICONLABS\SIMPLICITYSTUDIO\V3\DEVELOPER\TOOLCHAINS\KEIL_8051\9.53\LIB\C51S.LIB (?C?ULDIV)
         COMMENT TYPE 1: A51 / ASM51 Assembler
  C:\SILICONLABS\SIMPLICITYSTUDIO\V3\DEVELOPER\TOOLCHAINS\KEIL_8051\9.53\LIB\C51S.LIB (?C?ULCMP)
         COMMENT TYPE 1: A51 / ASM51 Assembler
  C:\SILICONLABS\SIMPLICITYSTUDIO\V3\DEVELOPER\TOOLCHAINS\KEIL_8051\9.53\LIB\C51S.LIB (?C?LLDIDATA)
         COMMENT TYPE 1: A51 / ASM51 Assembler
  C:\SILICONLABS\SIMPLICITYSTUDIO\V3\DEVELOPER\TOOLCHAINS\KEIL_8051\9.53\LIB\C51S.LIB (?C?LLDIDATA0)
         COMMENT TYPE 1: A51 / ASM51 Assembler
  C:\SILICONLABS\SIMPLICITYSTUDIO\V3\DEVELOPER\TOOLCHAINS\KEIL_8051\9.53\LIB\C51S.LIB (?C?LSTIDATA)
         COMMENT TYPE 1: A51 / ASM51 Assembler
  C:\SILICONLABS\SIMPLICITYSTUDIO\V3\DEVELOPER\TOOLCHAINS\KEIL_8051\9.53\LIB\C51S.LIB (?C?LSTKIDATA)
         COMMENT TYPE 1: A51 / ASM51 Assembler
  C:\SILICONLABS\SIMPLICITYSTUDIO\V3\DEVELOPER\TOOLCHAINS\KEIL_8051\9.53\LIB\C51S.LIB (?C?ICALL)
         COMMENT TYPE 1: A51 / ASM51 Assembler


ACTIVE MEMORY CLASSES OF MODULE:  AIDIK_4CH.OMF.CRBUILD (EFM8BB1_ADC_EXTERNALINPUT)

BASE        START       END         USED      MEMORY CLASS
==========================================================
LX51 LINKER/LOCATER V4.66.30.0                                                        04/06/2017  12:39:39  PAGE 2


C:000000H   C:000000H   C:001FFEH   0017FCH   CODE
C:000000H   C:000000H   C:001FFEH   00002CH   CONST
C:000000H   C:000000H   C:001FFEH             ECODE
B00:0000H   C:000000H   C:001FFEH             HCONST
X:000000H   X:000000H   X:0000FFH   0000A9H   XDATA
X:000000H   X:000000H   X:0000FFH             HDATA
I:000020H.0 I:000020H.0 I:00002FH.7 000000H.4 BIT
I:000000H   I:000000H   I:00007FH   000078H   DATA
I:000000H   I:000000H   I:0000FFH   000001H   IDATA


MEMORY MAP OF MODULE:  AIDIK_4CH.OMF.CRBUILD (EFM8BB1_ADC_EXTERNALINPUT)


START     STOP      LENGTH    ALIGN  RELOC    MEMORY CLASS   SEGMENT NAME
=========================================================================

* * * * * * * * * * *   D A T A   M E M O R Y   * * * * * * * * * * * * *
000000H   000007H   000008H   ---    AT..     DATA           "REG BANK 0"
000008H   000012H   00000BH   BYTE   UNIT     DATA           ?DT?LED
000013H   000016H   000004H   BYTE   UNIT     DATA           ?DT?WIRELESS
000017H   000017H   000001H   BYTE   UNIT     DATA           ?DT?INTERRUPTS
000018H.0 00001FH.7 000008H.0 ---    ---      **GAP**
000020H.0 000020H.1 000000H.2 BIT    UNIT     BIT            ?BI?WIRELESS
000020H.2 000020H.2 000000H.1 BIT    UNIT     BIT            ?BI?LOGIC
000020H.3 000020H.3 000000H.1 BIT    UNIT     BIT            _BIT_GROUP_
000020H.4 000020H   000000H.4 ---    ---      **GAP**
000021H   000061H   000041H   BYTE   UNIT     DATA           ?DT?LOGIC
000062H   000062H   000001H   BYTE   UNIT     IDATA          ?STACK

* * * * * * * * * * *   C O D E   M E M O R Y   * * * * * * * * * * * * *
000000H   000002H   000003H   ---    OFFS..   CODE           ?CO?SILABS_STARTUP?3
000003H   00000AH   000008H   BYTE   UNIT     CODE           ?PR?KEYSCAN?KEY_DRIVER
00000BH   00000DH   000003H   BYTE   OFFS..   CODE           ?INTERRUPTS?0000B
00000EH   00002AH   00001DH   BYTE   UNIT     CODE           ?PR?_WIRELESSON500MSOFF500MS?LED
00002BH   00002DH   000003H   BYTE   OFFS..   CODE           ?INTERRUPTS?0002B
00002EH   000051H   000024H   BYTE   UNIT     CODE           ?PR?SENDTO595?LED
000052H   000052H   000001H   BYTE   UNIT     CODE           ?PR?TIMER2_ISR?INTERRUPTS
000053H   000055H   000003H   BYTE   OFFS..   CODE           ?INTERRUPTS?00053
000056H   00051DH   0004C8H   BYTE   UNIT     CODE           ?PR?_KEYDEAL?KEY_DRIVER
00051EH   0007BDH   0002A0H   BYTE   UNIT     CODE           ?C?LIB_CODE
0007BEH   000930H   000173H   BYTE   UNIT     CODE           ?PR?_WIRELESSSTUDY?WIRELESS
000931H   000A56H   000126H   BYTE   UNIT     CODE           ?PR?ADSCAN?LOGIC
000A57H   000B77H   000121H   BYTE   UNIT     CODE           ?C_INITSEG
000B78H   000C85H   00010EH   BYTE   UNIT     CODE           ?PR?REGISTERKEYS?KEY
000C86H   000D6AH   0000E5H   BYTE   UNIT     CODE           ?PR?DEALJOGGING?LOGIC
000D6BH   000E30H   0000C6H   BYTE   UNIT     CODE           ?PR?_KEYREGISTERSINGLE?KEY_DRIVER
000E31H   000EF0H   0000C0H   BYTE   UNIT     CODE           ?PR?WIRELESSACTION?WIRELESS
000EF1H   000F95H   0000A5H   BYTE   UNIT     CODE           ?PR?DEALLOCK?LOGIC
000F96H   001025H   000090H   BYTE   UNIT     CODE           ?PR?_DECODEWIRELESS?WIRELESS
001026H   0010B1H   00008CH   BYTE   UNIT     CODE           ?C_C51STARTUP
0010B2H   001124H   000073H   BYTE   UNIT     CODE           ?PR?_SETCHANNELSTATUSINLOCK?LOGIC
001125H   00117FH   00005BH   BYTE   UNIT     CODE           ?PR?KEYGET?KEY_DRIVER
001180H   0011D8H   000059H   BYTE   UNIT     CODE           ?PR?KEY5_LONG_PRESS?KEY
0011D9H   00122EH   000056H   BYTE   UNIT     CODE           ?PR?TIMER0_ISR?INTERRUPTS
00122FH   001282H   000054H   BYTE   UNIT     CODE           ?PR?WIRELESSSCAN?LED
001283H   0012C0H   00003EH   BYTE   UNIT     CODE           ?PR?ADC0EOC_ISR?INTERRUPTS
0012C1H   0012F8H   000038H   BYTE   UNIT     CODE           ?PR?KEY5_SHORT_UP_PRESS?KEY
0012F9H   001329H   000031H   BYTE   UNIT     CODE           ?PR?WIRELESS_SCAN?WIRELESS
00132AH   001357H   00002EH   BYTE   UNIT     CODE           ?PR?SAVAPARAMTOFLASH?WIRELESS
001358H   001384H   00002DH   BYTE   UNIT     CODE           ?PR?_KEYSDEAL?KEY_DRIVER
001385H   0013ADH   000029H   BYTE   UNIT     CODE           ?PR?_FLASH_BYTEWRITE?EFM8BB1_FLASHPRIMITIVES
LX51 LINKER/LOCATER V4.66.30.0                                                        04/06/2017  12:39:39  PAGE 3


0013AEH   0013D6H   000029H   BYTE   UNIT     CODE           ?PR?_FLASH_PAGEERASE?EFM8BB1_FLASHPRIMITIVES
0013D7H   0013FFH   000029H   BYTE   UNIT     CODE           ?PR?KEY5_TWICE_PRESS?KEY
001400H   001426H   000027H   BYTE   UNIT     CODE           ?PR?ENTER_DEFAULTMODE_FROM_RESET?INITDEVICE
001427H   00144DH   000027H   BYTE   UNIT     CODE           ?PR?KEY5_IS_PRESS?KEY
00144EH   001474H   000027H   BYTE   UNIT     CODE           ?PR?KEY4_IS_PRESS?KEY
001475H   00149BH   000027H   BYTE   UNIT     CODE           ?PR?KEY3_IS_PRESS?KEY
00149CH   0014C2H   000027H   BYTE   UNIT     CODE           ?PR?KEY2_IS_PRESS?KEY
0014C3H   0014E9H   000027H   BYTE   UNIT     CODE           ?PR?KEY1_IS_PRESS?KEY
0014EAH   001509H   000020H   BYTE   UNIT     CODE           ?PR?KEY1_SHORT_UP_PRESS?KEY
00150AH   001529H   000020H   BYTE   UNIT     CODE           ?PR?KEY2_SHORT_UP_PRESS?KEY
00152AH   001549H   000020H   BYTE   UNIT     CODE           ?PR?KEY3_SHORT_UP_PRESS?KEY
00154AH   001569H   000020H   BYTE   UNIT     CODE           ?PR?KEY4_SHORT_UP_PRESS?KEY
00156AH   001589H   000020H   BYTE   UNIT     CODE           ?PR?_SETKEYPIN?LOGIC
00158AH   0015A7H   00001EH   BYTE   UNIT     CODE           ?PR?KEY1_TWICE_PRESS?KEY
0015A8H   0015C5H   00001EH   BYTE   UNIT     CODE           ?PR?KEY2_TWICE_PRESS?KEY
0015C6H   0015E3H   00001EH   BYTE   UNIT     CODE           ?PR?KEY3_TWICE_PRESS?KEY
0015E4H   001601H   00001EH   BYTE   UNIT     CODE           ?PR?KEY4_TWICE_PRESS?KEY
001602H   00161DH   00001CH   BYTE   UNIT     CODE           ?PR?KEY2_LONG_PRESS?KEY
00161EH   001639H   00001CH   BYTE   UNIT     CODE           ?PR?KEY3_LONG_PRESS?KEY
00163AH   001655H   00001CH   BYTE   UNIT     CODE           ?PR?KEY4_LONG_PRESS?KEY
001656H   001671H   00001CH   BYTE   UNIT     CODE           ?PR?_GETREADRELAYSTATUS?LOGIC
001672H   00168CH   00001BH   BYTE   UNIT     CODE           ?PR?_WIRELESSON50MSOFF50MS?LED
00168DH   0016A5H   000019H   BYTE   UNIT     CODE           ?PR?TIMER01_0_ENTER_DEFAULTMODE_FROM_RESET?INITDEVICE
0016A6H   0016B9H   000014H   BYTE   UNIT     CODE           ?PR?KEY1_LONG_PRESS?KEY
0016BAH   0016CCH   000013H   BYTE   UNIT     CODE           ?PR?TIMER16_2_ENTER_DEFAULTMODE_FROM_RESET?INITDEVICE
0016CDH   0016DEH   000012H   BYTE   UNIT     CODE           ?PR?_WIRELESSLEDTOG?LED
0016DFH   0016ECH   00000EH   BYTE   UNIT     CODE           ?PR?DECODE?WIRELESS
0016EDH   0016F9H   00000DH   BYTE   UNIT     CODE           ?PR?ADC_0_ENTER_DEFAULTMODE_FROM_RESET?INITDEVICE
0016FAH   001705H   00000CH   BYTE   UNIT     CODE           ?PR?MAIN?EFM8BB1_ADC_EXTERNALINPUT
001706H   001711H   00000CH   BYTE   UNIT     CODE           ?PR?DEALNORMALMODE?LOGIC
001712H   00171CH   00000BH   BYTE   UNIT     CODE           ?PR?KEY1_SHORT_PRESS?KEY
00171DH   001727H   00000BH   BYTE   UNIT     CODE           ?PR?KEY2_SHORT_PRESS?KEY
001728H   001732H   00000BH   BYTE   UNIT     CODE           ?PR?KEY3_SHORT_PRESS?KEY
001733H   00173DH   00000BH   BYTE   UNIT     CODE           ?PR?KEY4_SHORT_PRESS?KEY
00173EH   001747H   00000AH   BYTE   UNIT     CODE           ?PR?PORTS_0_ENTER_DEFAULTMODE_FROM_RESET?INITDEVICE
001748H   001751H   00000AH   BYTE   UNIT     CODE           ?PR?PORTS_1_ENTER_DEFAULTMODE_FROM_RESET?INITDEVICE
001752H   00175BH   00000AH   BYTE   UNIT     CODE           ?PR?TIMER_SETUP_0_ENTER_DEFAULTMODE_FROM_RESET?INITDEVICE
00175CH   001764H   000009H   BYTE   UNIT     CODE           ?PR?_WIRELESSLEDISON?LED
001765H   00176DH   000009H   BYTE   UNIT     CODE           ?PR?WIRELESSLEDON?LED
00176EH   001776H   000009H   BYTE   UNIT     CODE           ?PR?WIRELESSLEDOFF?LED
001777H   00177FH   000009H   BYTE   UNIT     CODE           ?PR?_LEDSETCHANNELSVALUE?LED
001780H   001786H   000007H   BYTE   UNIT     CODE           ?PR?WDT_0_ENTER_DEFAULTMODE_FROM_RESET?INITDEVICE
001787H   00178DH   000007H   BYTE   UNIT     CODE           ?PR?PBCFG_0_ENTER_DEFAULTMODE_FROM_RESET?INITDEVICE
00178EH   001794H   000007H   BYTE   UNIT     CODE           ?PR?INTERRUPT_0_ENTER_DEFAULTMODE_FROM_RESET?INITDEVICE
001795H   00179AH   000006H   BYTE   UNIT     CODE           ?PR?LEDCHANNEL1ON?LED
00179BH   0017A0H   000006H   BYTE   UNIT     CODE           ?PR?LEDCHANNEL1OFF?LED
0017A1H   0017A6H   000006H   BYTE   UNIT     CODE           ?PR?LEDCHANNEL2ON?LED
0017A7H   0017ACH   000006H   BYTE   UNIT     CODE           ?PR?LEDCHANNEL2OFF?LED
0017ADH   0017B2H   000006H   BYTE   UNIT     CODE           ?PR?LEDCHANNEL3ON?LED
0017B3H   0017B8H   000006H   BYTE   UNIT     CODE           ?PR?LEDCHANNEL3OFF?LED
0017B9H   0017BEH   000006H   BYTE   UNIT     CODE           ?PR?LEDCHANNEL4ON?LED
0017BFH   0017C4H   000006H   BYTE   UNIT     CODE           ?PR?LEDCHANNEL4OFF?LED
0017C5H   0017CAH   000006H   BYTE   UNIT     CODE           ?PR?LEDMODEON?LED
0017CBH   0017D0H   000006H   BYTE   UNIT     CODE           ?PR?LEDMODEOFF?LED
0017D1H   0017D6H   000006H   BYTE   UNIT     CODE           ?PR?LEDSOFF?LED
0017D7H   0017DCH   000006H   BYTE   UNIT     CODE           ?PR?DEVICEINIT?LOGIC
0017DDH   0017E0H   000004H   BYTE   UNIT     CODE           ?PR?VREF_0_ENTER_DEFAULTMODE_FROM_RESET?INITDEVICE
0017E1H   0017E4H   000004H   BYTE   UNIT     CODE           ?PR?CLOCK_0_ENTER_DEFAULTMODE_FROM_RESET?INITDEVICE
0017E5H   0017E8H   000004H   BYTE   UNIT     CODE           ?PR?UART_0_ENTER_DEFAULTMODE_FROM_RESET?INITDEVICE
0017E9H   0017ECH   000004H   BYTE   UNIT     CODE           ?PR?PORTS_2_ENTER_DEFAULTMODE_FROM_RESET?INITDEVICE
0017EDH   0017EFH   000003H   BYTE   UNIT     CODE           ?PR?KEY1_LONG_UP_PRESS?KEY
0017F0H   0017F2H   000003H   BYTE   UNIT     CODE           ?PR?KEY2_LONG_UP_PRESS?KEY
LX51 LINKER/LOCATER V4.66.30.0                                                        04/06/2017  12:39:39  PAGE 4


0017F3H   0017F5H   000003H   BYTE   UNIT     CODE           ?PR?KEY3_LONG_UP_PRESS?KEY
0017F6H   0017F8H   000003H   BYTE   UNIT     CODE           ?PR?KEY4_LONG_UP_PRESS?KEY
0017F9H   0017FBH   000003H   BYTE   UNIT     CODE           ?PR?KEYINIT?KEY
0017FCH   001827H   00002CH   BYTE   UNIT     CONST          ?CO?LOGIC

* * * * * * * * * * *  X D A T A   M E M O R Y  * * * * * * * * * * * * *
000000H   000091H   000092H   BYTE   UNIT     XDATA          ?XD?KEY_DRIVER
000092H   0000A0H   00000FH   BYTE   UNIT     XDATA          ?XD?WIRELESS
0000A1H   0000A4H   000004H   BYTE   UNIT     XDATA          ?XD?LOGIC
0000A5H   0000A8H   000004H   BYTE   UNIT     XDATA          _XDATA_GROUP_

* * * * * * * * *   R E M O V E D     S E G M E N T S   * * * * * * * *
   *DEL*:           000012H   BYTE   UNIT     CODE           ?PR?_FLASH_BYTEREAD?EFM8BB1_FLASHPRIMITIVES
   *DEL*:           000000H.1 BIT    UNIT     BIT            ?BI?_FLASH_BYTEREAD?EFM8BB1_FLASHPRIMITIVES
   *DEL*:           000006H   BYTE   UNIT     CODE           ?PR?LEDSON?LED
   *DEL*:           000023H   BYTE   UNIT     CODE           ?PR?SAVEWORKPARAMS?LOGIC
   *DEL*:           00001FH   BYTE   UNIT     CODE           ?PR?LOADWORKPARAMS?LOGIC



OVERLAY MAP OF MODULE:   AIDIK_4CH.OMF.CRBUILD (EFM8BB1_ADC_EXTERNALINPUT)


FUNCTION/MODULE                                BIT_GROUP   DATA_GROUP   XDATA_GROUP
--> CALLED FUNCTION/MODULE                    START  STOP  START  STOP  START  STOP
===================================================================================
ADC0EOC_ISR/INTERRUPTS                        ----- -----  ----- -----  ----- -----
  +--> ADSCAN/LOGIC
  +--> DECODE/WIRELESS

ADSCAN/LOGIC                                  ----- -----  0000H 0004H  ----- -----
  +--> ?CO?LOGIC

?CO?LOGIC                                     ----- -----  ----- -----  ----- -----

DECODE/WIRELESS                               ----- -----  ----- -----  ----- -----
  +--> _DECODEWIRELESS/WIRELESS

_DECODEWIRELESS/WIRELESS                      ----- -----  ----- -----  ----- -----

*** NEW ROOT ********************************

TIMER2_ISR/INTERRUPTS                         ----- -----  ----- -----  ----- -----

*** NEW ROOT ********************************

TIMER0_ISR/INTERRUPTS                         ----- -----  ----- -----  ----- -----
  +--> WIRELESSSCAN/LED
  +--> KEYSCAN/KEY_DRIVER
  +--> WIRELESS_SCAN/WIRELESS
  +--> DEALNORMALMODE/LOGIC

WIRELESSSCAN/LED                              ----- -----  ----- -----  ----- -----
  +--> _WIRELESSLEDISON/LED
  +--> _WIRELESSLEDTOG/LED

_WIRELESSLEDISON/LED                          ----- -----  ----- -----  ----- -----

_WIRELESSLEDTOG/LED                           ----- -----  ----- -----  ----- -----
  +--> SENDTO595/LED

SENDTO595/LED                                 ----- -----  ----- -----  ----- -----
LX51 LINKER/LOCATER V4.66.30.0                                                        04/06/2017  12:39:39  PAGE 5



KEYSCAN/KEY_DRIVER                            ----- -----  ----- -----  ----- -----
  +--> KEYGET/KEY_DRIVER
  +--> _KEYSDEAL/KEY_DRIVER

KEYGET/KEY_DRIVER                             ----- -----  0005H 0006H  ----- -----

_KEYSDEAL/KEY_DRIVER                          ----- -----  0005H 0008H  ----- -----
  +--> _KEYDEAL/KEY_DRIVER

_KEYDEAL/KEY_DRIVER                           ----- -----  0009H 000AH  ----- -----

WIRELESS_SCAN/WIRELESS                        ----- -----  0005H 0005H  ----- -----
  +--> _WIRELESSSTUDY/WIRELESS
  +--> WIRELESSACTION/WIRELESS

_WIRELESSSTUDY/WIRELESS                       ----- -----  0006H 000BH  ----- -----
  +--> SAVAPARAMTOFLASH/WIRELESS
  +--> _WIRELESSON500MSOFF500MS/LED

SAVAPARAMTOFLASH/WIRELESS                     ----- -----  000CH 000CH  ----- -----
  +--> _FLASH_PAGEERASE/EFM8BB1_FLASHPRIMITIVES
  +--> _FLASH_BYTEWRITE/EFM8BB1_FLASHPRIMITIVES

_FLASH_PAGEERASE/EFM8BB1_FLASHPRIMITIVES      20H.3 20H.3  ----- -----  ----- -----

_FLASH_BYTEWRITE/EFM8BB1_FLASHPRIMITIVES      20H.3 20H.3  ----- -----  ----- -----

_WIRELESSON500MSOFF500MS/LED                  ----- -----  ----- -----  ----- -----

WIRELESSACTION/WIRELESS                       ----- -----  0006H 000AH  ----- -----
  +--> _SETKEYPIN/LOGIC
  +--> _WIRELESSON50MSOFF50MS/LED

_SETKEYPIN/LOGIC                              20H.3 20H.3  ----- -----  ----- -----

_WIRELESSON50MSOFF50MS/LED                    ----- -----  ----- -----  ----- -----

DEALNORMALMODE/LOGIC                          ----- -----  ----- -----  ----- -----
  +--> DEALLOCK/LOGIC
  +--> DEALJOGGING/LOGIC

DEALLOCK/LOGIC                                ----- -----  ----- -----  00A5H 00A8H
  +--> ?CO?LOGIC
  +--> _SETCHANNELSTATUSINLOCK/LOGIC

_SETCHANNELSTATUSINLOCK/LOGIC                 ----- -----  ----- -----  ----- -----
  +--> _GETREADRELAYSTATUS/LOGIC
  +--> _SETKEYPIN/LOGIC

_GETREADRELAYSTATUS/LOGIC                     ----- -----  ----- -----  ----- -----

DEALJOGGING/LOGIC                             ----- -----  ----- -----  ----- -----
  +--> _GETREADRELAYSTATUS/LOGIC
  +--> _SETKEYPIN/LOGIC

*** NEW ROOT ********************************

?C_C51STARTUP                                 ----- -----  ----- -----  ----- -----
  +--> MAIN/EFM8BB1_ADC_EXTERNALINPUT
  +--> ?C_INITSEG

LX51 LINKER/LOCATER V4.66.30.0                                                        04/06/2017  12:39:39  PAGE 6


MAIN/EFM8BB1_ADC_EXTERNALINPUT                ----- -----  ----- -----  ----- -----
  +--> ENTER_DEFAULTMODE_FROM_RESET/INITDEVICE
  +--> DEVICEINIT/LOGIC

ENTER_DEFAULTMODE_FROM_RESET/INITDEVICE       ----- -----  ----- -----  ----- -----
  +--> WDT_0_ENTER_DEFAULTMODE_FROM_RESET/INITDEVICE
  +--> PORTS_0_ENTER_DEFAULTMODE_FROM_RESET/INITDEVICE
  +--> PORTS_1_ENTER_DEFAULTMODE_FROM_RESET/INITDEVICE
  +--> PORTS_2_ENTER_DEFAULTMODE_FROM_RESET/INITDEVICE
  +--> PBCFG_0_ENTER_DEFAULTMODE_FROM_RESET/INITDEVICE
  +--> ADC_0_ENTER_DEFAULTMODE_FROM_RESET/INITDEVICE
  +--> VREF_0_ENTER_DEFAULTMODE_FROM_RESET/INITDEVICE
  +--> CLOCK_0_ENTER_DEFAULTMODE_FROM_RESET/INITDEVICE
  +--> TIMER01_0_ENTER_DEFAULTMODE_FROM_RESET/INITDEVICE
  +--> TIMER16_2_ENTER_DEFAULTMODE_FROM_RESET/INITDEVICE
  +--> TIMER_SETUP_0_ENTER_DEFAULTMODE_FROM_RESET/INITDEVICE
  +--> UART_0_ENTER_DEFAULTMODE_FROM_RESET/INITDEVICE
  +--> INTERRUPT_0_ENTER_DEFAULTMODE_FROM_RESET/INITDEVICE

WDT_0_ENTER_DEFAULTMODE_FROM_RESET/INITD+     ----- -----  ----- -----  ----- -----
... EVICE

PORTS_0_ENTER_DEFAULTMODE_FROM_RESET/INI+     ----- -----  ----- -----  ----- -----
... TDEVICE

PORTS_1_ENTER_DEFAULTMODE_FROM_RESET/INI+     ----- -----  ----- -----  ----- -----
... TDEVICE

PORTS_2_ENTER_DEFAULTMODE_FROM_RESET/INI+     ----- -----  ----- -----  ----- -----
... TDEVICE

PBCFG_0_ENTER_DEFAULTMODE_FROM_RESET/INI+     ----- -----  ----- -----  ----- -----
... TDEVICE

ADC_0_ENTER_DEFAULTMODE_FROM_RESET/INITD+     ----- -----  ----- -----  ----- -----
... EVICE

VREF_0_ENTER_DEFAULTMODE_FROM_RESET/INIT+     ----- -----  ----- -----  ----- -----
... DEVICE

CLOCK_0_ENTER_DEFAULTMODE_FROM_RESET/INI+     ----- -----  ----- -----  ----- -----
... TDEVICE

TIMER01_0_ENTER_DEFAULTMODE_FROM_RESET/I+     ----- -----  ----- -----  ----- -----
... NITDEVICE

TIMER16_2_ENTER_DEFAULTMODE_FROM_RESET/I+     ----- -----  ----- -----  ----- -----
... NITDEVICE

TIMER_SETUP_0_ENTER_DEFAULTMODE_FROM_RES+     ----- -----  ----- -----  ----- -----
... ET/INITDEVICE

UART_0_ENTER_DEFAULTMODE_FROM_RESET/INIT+     ----- -----  ----- -----  ----- -----
... DEVICE

INTERRUPT_0_ENTER_DEFAULTMODE_FROM_RESET+     ----- -----  ----- -----  ----- -----
... /INITDEVICE

DEVICEINIT/LOGIC                              ----- -----  ----- -----  ----- -----
  +--> KEYINIT/KEY
  +--> LEDSOFF/LED

LX51 LINKER/LOCATER V4.66.30.0                                                        04/06/2017  12:39:39  PAGE 7


KEYINIT/KEY                                   ----- -----  ----- -----  ----- -----
  +--> REGISTERKEYS/KEY

REGISTERKEYS/KEY                              ----- -----  ----- -----  ----- -----
  +--> KEY1_SHORT_PRESS/KEY
  +--> KEY1_SHORT_UP_PRESS/KEY
  +--> KEY1_LONG_PRESS/KEY
  +--> KEY1_LONG_UP_PRESS/KEY
  +--> KEY1_TWICE_PRESS/KEY
  +--> KEY1_IS_PRESS/KEY
  +--> _KEYREGISTERSINGLE/KEY_DRIVER
  +--> KEY2_SHORT_PRESS/KEY
  +--> KEY2_SHORT_UP_PRESS/KEY
  +--> KEY2_LONG_PRESS/KEY
  +--> KEY2_LONG_UP_PRESS/KEY
  +--> KEY2_TWICE_PRESS/KEY
  +--> KEY2_IS_PRESS/KEY
  +--> KEY3_SHORT_PRESS/KEY
  +--> KEY3_SHORT_UP_PRESS/KEY
  +--> KEY3_LONG_PRESS/KEY
  +--> KEY3_LONG_UP_PRESS/KEY
  +--> KEY3_TWICE_PRESS/KEY
  +--> KEY3_IS_PRESS/KEY
  +--> KEY4_SHORT_PRESS/KEY
  +--> KEY4_SHORT_UP_PRESS/KEY
  +--> KEY4_LONG_PRESS/KEY
  +--> KEY4_LONG_UP_PRESS/KEY
  +--> KEY4_TWICE_PRESS/KEY
  +--> KEY4_IS_PRESS/KEY
  +--> KEY5_SHORT_UP_PRESS/KEY
  +--> KEY5_LONG_PRESS/KEY
  +--> KEY5_TWICE_PRESS/KEY
  +--> KEY5_IS_PRESS/KEY

KEY1_SHORT_PRESS/KEY                          ----- -----  ----- -----  ----- -----
  +--> LEDCHANNEL1ON/LED

LEDCHANNEL1ON/LED                             ----- -----  ----- -----  ----- -----
  +--> SENDTO595/LED

KEY1_SHORT_UP_PRESS/KEY                       ----- -----  ----- -----  ----- -----
  +--> LEDCHANNEL1OFF/LED

LEDCHANNEL1OFF/LED                            ----- -----  ----- -----  ----- -----
  +--> SENDTO595/LED

KEY1_LONG_PRESS/KEY                           ----- -----  ----- -----  ----- -----
  +--> LEDCHANNEL1OFF/LED

KEY1_LONG_UP_PRESS/KEY                        ----- -----  ----- -----  ----- -----

KEY1_TWICE_PRESS/KEY                          ----- -----  ----- -----  ----- -----
  +--> LEDCHANNEL1ON/LED
  +--> LEDCHANNEL1OFF/LED

KEY1_IS_PRESS/KEY                             ----- -----  ----- -----  ----- -----

_KEYREGISTERSINGLE/KEY_DRIVER                 ----- -----  000DH 001EH  ----- -----

KEY2_SHORT_PRESS/KEY                          ----- -----  ----- -----  ----- -----
  +--> LEDCHANNEL2ON/LED

LX51 LINKER/LOCATER V4.66.30.0                                                        04/06/2017  12:39:39  PAGE 8


LEDCHANNEL2ON/LED                             ----- -----  ----- -----  ----- -----
  +--> SENDTO595/LED

KEY2_SHORT_UP_PRESS/KEY                       ----- -----  ----- -----  ----- -----
  +--> LEDCHANNEL2OFF/LED

LEDCHANNEL2OFF/LED                            ----- -----  ----- -----  ----- -----
  +--> SENDTO595/LED

KEY2_LONG_PRESS/KEY                           ----- -----  ----- -----  ----- -----
  +--> LEDCHANNEL2OFF/LED

KEY2_LONG_UP_PRESS/KEY                        ----- -----  ----- -----  ----- -----

KEY2_TWICE_PRESS/KEY                          ----- -----  ----- -----  ----- -----
  +--> LEDCHANNEL2ON/LED
  +--> LEDCHANNEL2OFF/LED

KEY2_IS_PRESS/KEY                             ----- -----  ----- -----  ----- -----

KEY3_SHORT_PRESS/KEY                          ----- -----  ----- -----  ----- -----
  +--> LEDCHANNEL3ON/LED

LEDCHANNEL3ON/LED                             ----- -----  ----- -----  ----- -----
  +--> SENDTO595/LED

KEY3_SHORT_UP_PRESS/KEY                       ----- -----  ----- -----  ----- -----
  +--> LEDCHANNEL3OFF/LED

LEDCHANNEL3OFF/LED                            ----- -----  ----- -----  ----- -----
  +--> SENDTO595/LED

KEY3_LONG_PRESS/KEY                           ----- -----  ----- -----  ----- -----
  +--> LEDCHANNEL3OFF/LED

KEY3_LONG_UP_PRESS/KEY                        ----- -----  ----- -----  ----- -----

KEY3_TWICE_PRESS/KEY                          ----- -----  ----- -----  ----- -----
  +--> LEDCHANNEL3ON/LED
  +--> LEDCHANNEL3OFF/LED

KEY3_IS_PRESS/KEY                             ----- -----  ----- -----  ----- -----

KEY4_SHORT_PRESS/KEY                          ----- -----  ----- -----  ----- -----
  +--> LEDCHANNEL4ON/LED

LEDCHANNEL4ON/LED                             ----- -----  ----- -----  ----- -----
  +--> SENDTO595/LED

KEY4_SHORT_UP_PRESS/KEY                       ----- -----  ----- -----  ----- -----
  +--> LEDCHANNEL4OFF/LED

LEDCHANNEL4OFF/LED                            ----- -----  ----- -----  ----- -----
  +--> SENDTO595/LED

KEY4_LONG_PRESS/KEY                           ----- -----  ----- -----  ----- -----
  +--> LEDCHANNEL4OFF/LED

KEY4_LONG_UP_PRESS/KEY                        ----- -----  ----- -----  ----- -----

KEY4_TWICE_PRESS/KEY                          ----- -----  ----- -----  ----- -----
  +--> LEDCHANNEL4ON/LED
LX51 LINKER/LOCATER V4.66.30.0                                                        04/06/2017  12:39:39  PAGE 9


  +--> LEDCHANNEL4OFF/LED

KEY4_IS_PRESS/KEY                             ----- -----  ----- -----  ----- -----

KEY5_SHORT_UP_PRESS/KEY                       ----- -----  000DH 000DH  ----- -----
  +--> WIRELESSLEDOFF/LED
  +--> LEDMODEON/LED
  +--> LEDMODEOFF/LED
  +--> _LEDSETCHANNELSVALUE/LED

WIRELESSLEDOFF/LED                            ----- -----  ----- -----  ----- -----
  +--> SENDTO595/LED

LEDMODEON/LED                                 ----- -----  ----- -----  ----- -----
  +--> SENDTO595/LED

LEDMODEOFF/LED                                ----- -----  ----- -----  ----- -----
  +--> SENDTO595/LED

_LEDSETCHANNELSVALUE/LED                      ----- -----  ----- -----  ----- -----
  +--> SENDTO595/LED

KEY5_LONG_PRESS/KEY                           ----- -----  000DH 000DH  ----- -----
  +--> _LEDSETCHANNELSVALUE/LED
  +--> LEDMODEOFF/LED
  +--> LEDCHANNEL1OFF/LED
  +--> WIRELESSLEDON/LED
  +--> WIRELESSLEDOFF/LED
  +--> LEDMODEON/LED

WIRELESSLEDON/LED                             ----- -----  ----- -----  ----- -----
  +--> SENDTO595/LED

KEY5_TWICE_PRESS/KEY                          ----- -----  ----- -----  ----- -----
  +--> LEDMODEON/LED
  +--> LEDMODEOFF/LED
  +--> _LEDSETCHANNELSVALUE/LED

KEY5_IS_PRESS/KEY                             ----- -----  ----- -----  ----- -----

LEDSOFF/LED                                   ----- -----  ----- -----  ----- -----
  +--> SENDTO595/LED

?C_INITSEG                                    ----- -----  ----- -----  ----- -----



PUBLIC SYMBOLS OF MODULE:  AIDIK_4CH.OMF.CRBUILD (EFM8BB1_ADC_EXTERNALINPUT)


      VALUE       CLASS    TYPE      PUBLIC SYMBOL NAME
      =================================================
      0000000DH   DATA     BYTE      ?_keyRegisterSingle?BYTE
      00000020H.3 BIT      BIT       ?_setKeyPin?BIT
      00000000H   NUMBER   ---       ?C?CODESEG
      010005EEH   CODE     ---       ?C?COPY
      01000614H   CODE     ---       ?C?CSTOPTR
      010007B8H   CODE     ---       ?C?ICALL
      010007BCH   CODE     ---       ?C?ICALL2
      01000636H   CODE     ---       ?C?IILDX
      0100077AH   CODE     ---       ?C?LLDIDATA
      01000786H   CODE     ---       ?C?LLDIDATA0
LX51 LINKER/LOCATER V4.66.30.0                                                        04/06/2017  12:39:39  PAGE 10


      0100064CH   CODE     ---       ?C?LMUL
      01000793H   CODE     ---       ?C?LSTIDATA
      0100079FH   CODE     ---       ?C?LSTKIDATA
      01000769H   CODE     ---       ?C?ULCMP
      010006D7H   CODE     ---       ?C?ULDIV
      00000000H   NUMBER   ---       ?C?XDATASEG
      0100106DH   CODE     ---       ?C_START
      01000000H   CODE     NEAR LAB  ?C_STARTUP
      01000F96H   CODE     ---       _decodeWireless
*DEL*:00000000H   CODE     ---       _FLASH_ByteRead
      01001385H   CODE     ---       _FLASH_ByteWrite
      010013AEH   CODE     ---       _FLASH_PageErase
      01000D6BH   CODE     ---       _keyRegisterSingle
      01001777H   CODE     ---       _ledSetChannelsValue
      0100156AH   CODE     ---       _setKeyPin
      0100000EH   CODE     ---       _wirelessOn500msOff500ms
      01001672H   CODE     ---       _wirelessOn50msOff50ms
*SFR* 000000E0H   DATA     BYTE      ACC
*SFR* 000000E0H   DATA     BIT       ACC_ACC0
*SFR* 000000E0H.1 DATA     BIT       ACC_ACC1
*SFR* 000000E0H.2 DATA     BIT       ACC_ACC2
*SFR* 000000E0H.3 DATA     BIT       ACC_ACC3
*SFR* 000000E0H.4 DATA     BIT       ACC_ACC4
*SFR* 000000E0H.5 DATA     BIT       ACC_ACC5
*SFR* 000000E0H.6 DATA     BIT       ACC_ACC6
*SFR* 000000E0H.7 DATA     BIT       ACC_ACC7
      0000005EH   DATA     DWORD     ad_val
*SFR* 000000BDH   DATA     WORD      ADC0
*SFR* 000000B3H   DATA     BYTE      ADC0AC
*SFR* 000000BCH   DATA     BYTE      ADC0CF
*SFR* 000000E8H   DATA     BYTE      ADC0CN0
*SFR* 000000E8H.6 DATA     BIT       ADC0CN0_ADBMEN
*SFR* 000000E8H.4 DATA     BIT       ADC0CN0_ADBUSY
*SFR* 000000E8H   DATA     BIT       ADC0CN0_ADCM0
*SFR* 000000E8H.1 DATA     BIT       ADC0CN0_ADCM1
*SFR* 000000E8H.2 DATA     BIT       ADC0CN0_ADCM2
*SFR* 000000E8H.7 DATA     BIT       ADC0CN0_ADEN
*SFR* 000000E8H.5 DATA     BIT       ADC0CN0_ADINT
*SFR* 000000E8H.3 DATA     BIT       ADC0CN0_ADWINT
*SFR* 000000B2H   DATA     BYTE      ADC0CN1
      01001283H   CODE     ---       ADC0EOC_ISR
*SFR* 000000C3H   DATA     WORD      ADC0GT
*SFR* 000000C4H   DATA     BYTE      ADC0GTH
*SFR* 000000C3H   DATA     BYTE      ADC0GTL
*SFR* 000000BEH   DATA     BYTE      ADC0H
*SFR* 000000BDH   DATA     BYTE      ADC0L
*SFR* 000000C5H   DATA     WORD      ADC0LT
*SFR* 000000C6H   DATA     BYTE      ADC0LTH
*SFR* 000000C5H   DATA     BYTE      ADC0LTL
*SFR* 000000BBH   DATA     BYTE      ADC0MX
*SFR* 000000DFH   DATA     BYTE      ADC0PWR
*SFR* 000000B9H   DATA     BYTE      ADC0TK
      010016EDH   CODE     ---       ADC_0_enter_DefaultMode_from_RESET
      01000931H   CODE     ---       adScan
*SFR* 000000F0H   DATA     BYTE      B
*SFR* 000000F0H   DATA     BIT       B_B0
*SFR* 000000F0H.1 DATA     BIT       B_B1
*SFR* 000000F0H.2 DATA     BIT       B_B2
*SFR* 000000F0H.3 DATA     BIT       B_B3
*SFR* 000000F0H.4 DATA     BIT       B_B4
*SFR* 000000F0H.5 DATA     BIT       B_B5
*SFR* 000000F0H.6 DATA     BIT       B_B6
LX51 LINKER/LOCATER V4.66.30.0                                                        04/06/2017  12:39:39  PAGE 11


*SFR* 000000F0H.7 DATA     BIT       B_B7
*SFR* 0000008EH   DATA     BYTE      CKCON0
*SFR* 000000A9H   DATA     BYTE      CLKSEL
      010017E1H   CODE     ---       CLOCK_0_enter_DefaultMode_from_RESET
*SFR* 0000009BH   DATA     BYTE      CMP0CN0
*SFR* 0000009DH   DATA     BYTE      CMP0MD
*SFR* 0000009FH   DATA     BYTE      CMP0MX
*SFR* 000000BFH   DATA     BYTE      CMP1CN0
*SFR* 000000ABH   DATA     BYTE      CMP1MD
*SFR* 000000AAH   DATA     BYTE      CMP1MX
*SFR* 000000D2H   DATA     BYTE      CRC0AUTO
*SFR* 000000CEH   DATA     BYTE      CRC0CN0
*SFR* 000000D3H   DATA     BYTE      CRC0CNT
*SFR* 000000DEH   DATA     BYTE      CRC0DAT
*SFR* 000000CFH   DATA     BYTE      CRC0FLIP
*SFR* 000000DDH   DATA     BYTE      CRC0IN
      01001706H   CODE     ---       dealNormalMode
      010016DFH   CODE     ---       decode
*SFR* 000000ADH   DATA     BYTE      DERIVID
      00000029H   DATA     ---       device_def
*SFR* 000000B5H   DATA     BYTE      DEVICEID
      010017D7H   CODE     ---       deviceInit
*SFR* 00000082H   DATA     WORD      DP
*SFR* 00000083H   DATA     BYTE      DPH
*SFR* 00000082H   DATA     BYTE      DPL
*SFR* 000000E6H   DATA     BYTE      EIE1
*SFR* 000000F3H   DATA     BYTE      EIP1
      01001400H   CODE     ---       enter_DefaultMode_from_RESET
*SFR* 000000B7H   DATA     BYTE      FLKEY
*SFR* 000000C7H   DATA     BYTE      HFO0CAL
*SFR* 000000A8H   DATA     BYTE      IE
*SFR* 000000A8H.7 DATA     BIT       IE_EA
*SFR* 000000A8H.4 DATA     BIT       IE_ES0
*SFR* 000000A8H.6 DATA     BIT       IE_ESPI0
*SFR* 000000A8H.1 DATA     BIT       IE_ET0
*SFR* 000000A8H.3 DATA     BIT       IE_ET1
*SFR* 000000A8H.5 DATA     BIT       IE_ET2
*SFR* 000000A8H   DATA     BIT       IE_EX0
*SFR* 000000A8H.2 DATA     BIT       IE_EX1
      0100178EH   CODE     ---       INTERRUPT_0_enter_DefaultMode_from_RESET
*SFR* 000000B8H   DATA     BYTE      IP
*SFR* 000000B8H.4 DATA     BIT       IP_PS0
*SFR* 000000B8H.6 DATA     BIT       IP_PSPI0
*SFR* 000000B8H.1 DATA     BIT       IP_PT0
*SFR* 000000B8H.3 DATA     BIT       IP_PT1
*SFR* 000000B8H.5 DATA     BIT       IP_PT2
*SFR* 000000B8H   DATA     BIT       IP_PX0
*SFR* 000000B8H.2 DATA     BIT       IP_PX1
*SFR* 000000E4H   DATA     BYTE      IT01CF
*SFR* 00000090H   DATA     BIT       KEY1
*SFR* 00000080H.3 DATA     BIT       KEY2
*SFR* 00000080H.2 DATA     BIT       KEY3
*SFR* 00000090H.5 DATA     BIT       KEY4
      010017F9H   CODE     ---       keyInit
      02000060H   XDATA    ---       keys_ctl
      02000000H   XDATA    ---       keys_dev
      01000003H   CODE     ---       keyScan
      0100179BH   CODE     ---       ledChannel1Off
      01001795H   CODE     ---       ledChannel1On
      010017A7H   CODE     ---       ledChannel2Off
      010017A1H   CODE     ---       ledChannel2On
      010017B3H   CODE     ---       ledChannel3Off
LX51 LINKER/LOCATER V4.66.30.0                                                        04/06/2017  12:39:39  PAGE 12


      010017ADH   CODE     ---       ledChannel3On
      010017BFH   CODE     ---       ledChannel4Off
      010017B9H   CODE     ---       ledChannel4On
      010017CBH   CODE     ---       ledModeOff
      010017C5H   CODE     ---       ledModeOn
      010017D1H   CODE     ---       ledsOff
*DEL*:00000000H   CODE     ---       ledsOn
*SFR* 000000B1H   DATA     BYTE      LFO0CN
*DEL*:00000000H   CODE     ---       loadWorkParams
      010016FAH   CODE     ---       main
*SFR* 00000080H   DATA     BYTE      P0
*SFR* 00000080H   DATA     BIT       P0_B0
*SFR* 00000080H.1 DATA     BIT       P0_B1
*SFR* 00000080H.2 DATA     BIT       P0_B2
*SFR* 00000080H.3 DATA     BIT       P0_B3
*SFR* 00000080H.4 DATA     BIT       P0_B4
*SFR* 00000080H.5 DATA     BIT       P0_B5
*SFR* 00000080H.6 DATA     BIT       P0_B6
*SFR* 00000080H.7 DATA     BIT       P0_B7
*SFR* 000000FEH   DATA     BYTE      P0MASK
*SFR* 000000FDH   DATA     BYTE      P0MAT
*SFR* 000000F1H   DATA     BYTE      P0MDIN
*SFR* 000000A4H   DATA     BYTE      P0MDOUT
*SFR* 000000D4H   DATA     BYTE      P0SKIP
*SFR* 00000090H   DATA     BYTE      P1
*SFR* 00000090H   DATA     BIT       P1_B0
*SFR* 00000090H.1 DATA     BIT       P1_B1
*SFR* 00000090H.2 DATA     BIT       P1_B2
*SFR* 00000090H.3 DATA     BIT       P1_B3
*SFR* 00000090H.4 DATA     BIT       P1_B4
*SFR* 00000090H.5 DATA     BIT       P1_B5
*SFR* 00000090H.6 DATA     BIT       P1_B6
*SFR* 00000090H.7 DATA     BIT       P1_B7
*SFR* 000000EEH   DATA     BYTE      P1MASK
*SFR* 000000EDH   DATA     BYTE      P1MAT
*SFR* 000000F2H   DATA     BYTE      P1MDIN
*SFR* 000000A5H   DATA     BYTE      P1MDOUT
*SFR* 000000D5H   DATA     BYTE      P1SKIP
*SFR* 000000A0H   DATA     BYTE      P2
*SFR* 000000A0H   DATA     BIT       P2_B0
*SFR* 000000A0H.1 DATA     BIT       P2_B1
*SFR* 000000A6H   DATA     BYTE      P2MDOUT
      01001787H   CODE     ---       PBCFG_0_enter_DefaultMode_from_RESET
*SFR* 000000F9H   DATA     WORD      PCA0
*SFR* 0000009EH   DATA     BYTE      PCA0CENT
*SFR* 0000009CH   DATA     BYTE      PCA0CLR
*SFR* 000000D8H   DATA     BYTE      PCA0CN0
*SFR* 000000D8H   DATA     BIT       PCA0CN0_CCF0
*SFR* 000000D8H.1 DATA     BIT       PCA0CN0_CCF1
*SFR* 000000D8H.2 DATA     BIT       PCA0CN0_CCF2
*SFR* 000000D8H.7 DATA     BIT       PCA0CN0_CF
*SFR* 000000D8H.6 DATA     BIT       PCA0CN0_CR
*SFR* 000000FBH   DATA     WORD      PCA0CP0
*SFR* 000000E9H   DATA     WORD      PCA0CP1
*SFR* 000000EBH   DATA     WORD      PCA0CP2
*SFR* 000000FCH   DATA     BYTE      PCA0CPH0
*SFR* 000000EAH   DATA     BYTE      PCA0CPH1
*SFR* 000000ECH   DATA     BYTE      PCA0CPH2
*SFR* 000000FBH   DATA     BYTE      PCA0CPL0
*SFR* 000000E9H   DATA     BYTE      PCA0CPL1
*SFR* 000000EBH   DATA     BYTE      PCA0CPL2
*SFR* 000000DAH   DATA     BYTE      PCA0CPM0
LX51 LINKER/LOCATER V4.66.30.0                                                        04/06/2017  12:39:39  PAGE 13


*SFR* 000000DBH   DATA     BYTE      PCA0CPM1
*SFR* 000000DCH   DATA     BYTE      PCA0CPM2
*SFR* 000000FAH   DATA     BYTE      PCA0H
*SFR* 000000F9H   DATA     BYTE      PCA0L
*SFR* 000000D9H   DATA     BYTE      PCA0MD
*SFR* 00000096H   DATA     BYTE      PCA0POL
*SFR* 000000F7H   DATA     BYTE      PCA0PWM
*SFR* 00000087H   DATA     BYTE      PCON0
      0100173EH   CODE     ---       PORTS_0_enter_DefaultMode_from_RESET
      01001748H   CODE     ---       PORTS_1_enter_DefaultMode_from_RESET
      010017E9H   CODE     ---       PORTS_2_enter_DefaultMode_from_RESET
*SFR* 000000A0H   DATA     BYTE      PPAGE_SFR
*SFR* 000000F6H   DATA     BYTE      PRTDRV
*SFR* 0000008FH   DATA     BYTE      PSCTL
*SFR* 000000D0H   DATA     BYTE      PSW
*SFR* 000000D0H.6 DATA     BIT       PSW_AC
*SFR* 000000D0H.7 DATA     BIT       PSW_CY
*SFR* 000000D0H.5 DATA     BIT       PSW_F0
*SFR* 000000D0H.1 DATA     BIT       PSW_F1
*SFR* 000000D0H.2 DATA     BIT       PSW_OV
*SFR* 000000D0H   DATA     BIT       PSW_PARITY
*SFR* 000000D0H.3 DATA     BIT       PSW_RS0
*SFR* 000000D0H.4 DATA     BIT       PSW_RS1
*SFR* 00000080H   DATA     BIT       RCK
*SFR* 000000D1H   DATA     BYTE      REF0CN
*SFR* 000000C9H   DATA     BYTE      REG0CN
*SFR* 00000090H.4 DATA     BIT       RELAY1
*SFR* 00000090H.3 DATA     BIT       RELAY2
*SFR* 00000080H.7 DATA     BIT       RELAY3
*SFR* 00000090H.1 DATA     BIT       RELAY4
*SFR* 000000B6H   DATA     BYTE      REVID
*SFR* 000000EFH   DATA     BYTE      RSTSRC
      0100132AH   CODE     ---       savaParamtoFlash
*DEL*:00000000H   CODE     ---       saveWorkParams
*SFR* 00000099H   DATA     BYTE      SBUF0
*SFR* 00000080H.1 DATA     BIT       SCK
*SFR* 00000098H   DATA     BYTE      SCON0
*SFR* 00000098H.5 DATA     BIT       SCON0_MCE
*SFR* 00000098H.2 DATA     BIT       SCON0_RB8
*SFR* 00000098H.4 DATA     BIT       SCON0_REN
*SFR* 00000098H   DATA     BIT       SCON0_RI
*SFR* 00000098H.7 DATA     BIT       SCON0_SMODE
*SFR* 00000098H.3 DATA     BIT       SCON0_TB8
*SFR* 00000098H.1 DATA     BIT       SCON0_TI
      0100002EH   CODE     ---       SendTo595
*SFR* 000000A0H   DATA     BIT       SER
*SFR* 000000D6H   DATA     BYTE      SMB0ADM
*SFR* 000000D7H   DATA     BYTE      SMB0ADR
*SFR* 000000C1H   DATA     BYTE      SMB0CF
*SFR* 000000C0H   DATA     BYTE      SMB0CN0
*SFR* 000000C0H.1 DATA     BIT       SMB0CN0_ACK
*SFR* 000000C0H.3 DATA     BIT       SMB0CN0_ACKRQ
*SFR* 000000C0H.2 DATA     BIT       SMB0CN0_ARBLOST
*SFR* 000000C0H.7 DATA     BIT       SMB0CN0_MASTER
*SFR* 000000C0H   DATA     BIT       SMB0CN0_SI
*SFR* 000000C0H.5 DATA     BIT       SMB0CN0_STA
*SFR* 000000C0H.4 DATA     BIT       SMB0CN0_STO
*SFR* 000000C0H.6 DATA     BIT       SMB0CN0_TXMODE
*SFR* 000000C2H   DATA     BYTE      SMB0DAT
*SFR* 000000ACH   DATA     BYTE      SMB0TC
*SFR* 00000081H   DATA     BYTE      SP
*SFR* 000000A1H   DATA     BYTE      SPI0CFG
LX51 LINKER/LOCATER V4.66.30.0                                                        04/06/2017  12:39:39  PAGE 14


*SFR* 000000A2H   DATA     BYTE      SPI0CKR
*SFR* 000000F8H   DATA     BYTE      SPI0CN0
*SFR* 000000F8H.5 DATA     BIT       SPI0CN0_MODF
*SFR* 000000F8H.2 DATA     BIT       SPI0CN0_NSSMD0
*SFR* 000000F8H.3 DATA     BIT       SPI0CN0_NSSMD1
*SFR* 000000F8H.4 DATA     BIT       SPI0CN0_RXOVRN
*SFR* 000000F8H   DATA     BIT       SPI0CN0_SPIEN
*SFR* 000000F8H.7 DATA     BIT       SPI0CN0_SPIF
*SFR* 000000F8H.1 DATA     BIT       SPI0CN0_TXBMT
*SFR* 000000F8H.6 DATA     BIT       SPI0CN0_WCOL
*SFR* 000000A3H   DATA     BYTE      SPI0DAT
      010017FCH   CONST    ---       table
*SFR* 00000088H   DATA     BYTE      TCON
*SFR* 00000088H.1 DATA     BIT       TCON_IE0
*SFR* 00000088H.3 DATA     BIT       TCON_IE1
*SFR* 00000088H   DATA     BIT       TCON_IT0
*SFR* 00000088H.2 DATA     BIT       TCON_IT1
*SFR* 00000088H.5 DATA     BIT       TCON_TF0
*SFR* 00000088H.7 DATA     BIT       TCON_TF1
*SFR* 00000088H.4 DATA     BIT       TCON_TR0
*SFR* 00000088H.6 DATA     BIT       TCON_TR1
*SFR* 0000008CH   DATA     BYTE      TH0
*SFR* 0000008DH   DATA     BYTE      TH1
      0000005BH   DATA     WORD      time_level
      0100168DH   CODE     ---       TIMER01_0_enter_DefaultMode_from_RESET
      010011D9H   CODE     ---       TIMER0_ISR
      010016BAH   CODE     ---       TIMER16_2_enter_DefaultMode_from_RESET
      01000052H   CODE     ---       TIMER2_ISR
      01001752H   CODE     ---       TIMER_SETUP_0_enter_DefaultMode_from_RESET
*SFR* 0000008AH   DATA     BYTE      TL0
*SFR* 0000008BH   DATA     BYTE      TL1
*SFR* 00000089H   DATA     BYTE      TMOD
*SFR* 000000CCH   DATA     WORD      TMR2
*SFR* 000000C8H   DATA     BYTE      TMR2CN0
*SFR* 000000C8H.3 DATA     BIT       TMR2CN0_T2SPLIT
*SFR* 000000C8H   DATA     BIT       TMR2CN0_T2XCLK
*SFR* 000000C8H.4 DATA     BIT       TMR2CN0_TF2CEN
*SFR* 000000C8H.7 DATA     BIT       TMR2CN0_TF2H
*SFR* 000000C8H.6 DATA     BIT       TMR2CN0_TF2L
*SFR* 000000C8H.5 DATA     BIT       TMR2CN0_TF2LEN
*SFR* 000000C8H.2 DATA     BIT       TMR2CN0_TR2
*SFR* 000000CDH   DATA     BYTE      TMR2H
*SFR* 000000CCH   DATA     BYTE      TMR2L
*SFR* 000000CAH   DATA     WORD      TMR2RL
*SFR* 000000CBH   DATA     BYTE      TMR2RLH
*SFR* 000000CAH   DATA     BYTE      TMR2RLL
*SFR* 00000094H   DATA     WORD      TMR3
*SFR* 00000091H   DATA     BYTE      TMR3CN0
*SFR* 00000095H   DATA     BYTE      TMR3H
*SFR* 00000094H   DATA     BYTE      TMR3L
*SFR* 00000092H   DATA     WORD      TMR3RL
*SFR* 00000093H   DATA     BYTE      TMR3RLH
*SFR* 00000092H   DATA     BYTE      TMR3RLL
      010017E5H   CODE     ---       UART_0_enter_DefaultMode_from_RESET
*SFR* 000000FFH   DATA     BYTE      VDM0CN
      010017DDH   CODE     ---       VREF_0_enter_DefaultMode_from_RESET
      01001780H   CODE     ---       WDT_0_enter_DefaultMode_from_RESET
*SFR* 00000097H   DATA     BYTE      WDTCN
      00000008H   DATA     ---       wireless_led
*SFR* 00000090H.2 DATA     BIT       WIRELESS_PIN
      010012F9H   CODE     ---       wireless_scan
      0100176EH   CODE     ---       wirelessLedOff
LX51 LINKER/LOCATER V4.66.30.0                                                        04/06/2017  12:39:39  PAGE 15


      01001765H   CODE     ---       wirelessLedOn
      0100122FH   CODE     ---       wirelessScan
      0000005DH   DATA     BYTE      work_mode_params
*SFR* 000000E1H   DATA     BYTE      XBR0
*SFR* 000000E2H   DATA     BYTE      XBR1
*SFR* 000000E3H   DATA     BYTE      XBR2



IGNORED SEGMENTS:
   _DATA_GROUP_



SYMBOL TABLE OF MODULE:  AIDIK_4CH.OMF.CRBUILD (EFM8BB1_ADC_EXTERNALINPUT)

      VALUE       REP       CLASS    TYPE      SYMBOL NAME
      ====================================================
      ---         MODULE    ---      ---       EFM8BB1_ADC_EXTERNALINPUT
      010016FAH   PUBLIC    CODE     ---       main
      000000A2H   SFRSYM    DATA     BYTE      SPI0CKR
      00000080H   SFRSYM    DATA     BYTE      P0
      000000D0H.2 SFRSYM    DATA     BIT       PSW_OV
      00000090H   SFRSYM    DATA     BYTE      P1
      00000097H   SFRSYM    DATA     BYTE      WDTCN
      000000A0H   SFRSYM    DATA     BYTE      P2
      000000BCH   SFRSYM    DATA     BYTE      ADC0CF
      000000C8H   SFRSYM    DATA     BIT       TMR2CN0_T2XCLK
      000000C0H.7 SFRSYM    DATA     BIT       SMB0CN0_MASTER
      000000F9H   SFRSYM    DATA     WORD      PCA0
      000000E6H   SFRSYM    DATA     BYTE      EIE1
      000000C0H.1 SFRSYM    DATA     BIT       SMB0CN0_ACK
      0000008FH   SFRSYM    DATA     BYTE      PSCTL
      000000E4H   SFRSYM    DATA     BYTE      IT01CF
      000000C0H.6 SFRSYM    DATA     BIT       SMB0CN0_TXMODE
      000000ADH   SFRSYM    DATA     BYTE      DERIVID
      000000A4H   SFRSYM    DATA     BYTE      P0MDOUT
      000000A5H   SFRSYM    DATA     BYTE      P1MDOUT
      000000E8H.5 SFRSYM    DATA     BIT       ADC0CN0_ADINT
      000000CBH   SFRSYM    DATA     BYTE      TMR2RLH
      000000A6H   SFRSYM    DATA     BYTE      P2MDOUT
      000000A8H   SFRSYM    DATA     BYTE      IE
      00000093H   SFRSYM    DATA     BYTE      TMR3RLH
      000000F3H   SFRSYM    DATA     BYTE      EIP1
      00000098H.2 SFRSYM    DATA     BIT       SCON0_RB8
      000000CAH   SFRSYM    DATA     BYTE      TMR2RLL
      000000FCH   SFRSYM    DATA     BYTE      PCA0CPH0
      00000092H   SFRSYM    DATA     BYTE      TMR3RLL
      000000EAH   SFRSYM    DATA     BYTE      PCA0CPH1
      00000098H.3 SFRSYM    DATA     BIT       SCON0_TB8
      000000F0H   SFRSYM    DATA     BIT       B_B0
      00000082H   SFRSYM    DATA     WORD      DP
      000000ECH   SFRSYM    DATA     BYTE      PCA0CPH2
      000000F0H.1 SFRSYM    DATA     BIT       B_B1
      000000C3H   SFRSYM    DATA     WORD      ADC0GT
      000000F0H.2 SFRSYM    DATA     BIT       B_B2
      000000FBH   SFRSYM    DATA     BYTE      PCA0CPL0
      000000F0H.3 SFRSYM    DATA     BIT       B_B3
      000000D9H   SFRSYM    DATA     BYTE      PCA0MD
      000000DAH   SFRSYM    DATA     BYTE      PCA0CPM0
      000000E9H   SFRSYM    DATA     BYTE      PCA0CPL1
      000000F0H.4 SFRSYM    DATA     BIT       B_B4
LX51 LINKER/LOCATER V4.66.30.0                                                        04/06/2017  12:39:39  PAGE 16


      000000DBH   SFRSYM    DATA     BYTE      PCA0CPM1
      000000EBH   SFRSYM    DATA     BYTE      PCA0CPL2
      000000F0H.5 SFRSYM    DATA     BIT       B_B5
      000000DCH   SFRSYM    DATA     BYTE      PCA0CPM2
      000000B8H   SFRSYM    DATA     BYTE      IP
      000000B9H   SFRSYM    DATA     BYTE      ADC0TK
      000000F0H.6 SFRSYM    DATA     BIT       B_B6
      000000C5H   SFRSYM    DATA     WORD      ADC0LT
      00000098H.5 SFRSYM    DATA     BIT       SCON0_MCE
      000000F0H.7 SFRSYM    DATA     BIT       B_B7
      000000E1H   SFRSYM    DATA     BYTE      XBR0
      000000C1H   SFRSYM    DATA     BYTE      SMB0CF
      000000E2H   SFRSYM    DATA     BYTE      XBR1
      000000C0H.5 SFRSYM    DATA     BIT       SMB0CN0_STA
      000000E3H   SFRSYM    DATA     BYTE      XBR2
      000000BBH   SFRSYM    DATA     BYTE      ADC0MX
      000000E0H   SFRSYM    DATA     BIT       ACC_ACC0
      000000D1H   SFRSYM    DATA     BYTE      REF0CN
      0000008EH   SFRSYM    DATA     BYTE      CKCON0
      000000E0H.1 SFRSYM    DATA     BIT       ACC_ACC1
      000000C9H   SFRSYM    DATA     BYTE      REG0CN
      000000DDH   SFRSYM    DATA     BYTE      CRC0IN
      000000C8H.2 SFRSYM    DATA     BIT       TMR2CN0_TR2
      000000E0H.2 SFRSYM    DATA     BIT       ACC_ACC2
      000000E0H.3 SFRSYM    DATA     BIT       ACC_ACC3
      00000081H   SFRSYM    DATA     BYTE      SP
      0000009DH   SFRSYM    DATA     BYTE      CMP0MD
      000000E0H.4 SFRSYM    DATA     BIT       ACC_ACC4
      000000B1H   SFRSYM    DATA     BYTE      LFO0CN
      000000ABH   SFRSYM    DATA     BYTE      CMP1MD
      000000D8H   SFRSYM    DATA     BIT       PCA0CN0_CCF0
      000000E0H.5 SFRSYM    DATA     BIT       ACC_ACC5
      000000D8H.1 SFRSYM    DATA     BIT       PCA0CN0_CCF1
      000000E0H.6 SFRSYM    DATA     BIT       ACC_ACC6
      000000CCH   SFRSYM    DATA     WORD      TMR2
      000000D8H.2 SFRSYM    DATA     BIT       PCA0CN0_CCF2
      000000E0H.7 SFRSYM    DATA     BIT       ACC_ACC7
      00000094H   SFRSYM    DATA     WORD      TMR3
      000000C0H.3 SFRSYM    DATA     BIT       SMB0CN0_ACKRQ
      000000FFH   SFRSYM    DATA     BYTE      VDM0CN
      000000F1H   SFRSYM    DATA     BYTE      P0MDIN
      00000098H.4 SFRSYM    DATA     BIT       SCON0_REN
      000000ACH   SFRSYM    DATA     BYTE      SMB0TC
      000000F2H   SFRSYM    DATA     BYTE      P1MDIN
      000000C0H.4 SFRSYM    DATA     BIT       SMB0CN0_STO
      000000FEH   SFRSYM    DATA     BYTE      P0MASK
      000000EEH   SFRSYM    DATA     BYTE      P1MASK
      000000D0H.3 SFRSYM    DATA     BIT       PSW_RS0
      000000D8H.7 SFRSYM    DATA     BIT       PCA0CN0_CF
      0000009EH   SFRSYM    DATA     BYTE      PCA0CENT
      000000F8H.4 SFRSYM    DATA     BIT       SPI0CN0_RXOVRN
      000000D0H.4 SFRSYM    DATA     BIT       PSW_RS1
      000000E8H.7 SFRSYM    DATA     BIT       ADC0CN0_ADEN
      00000089H   SFRSYM    DATA     BYTE      TMOD
      00000088H   SFRSYM    DATA     BYTE      TCON
      000000CFH   SFRSYM    DATA     BYTE      CRC0FLIP
      000000D0H   SFRSYM    DATA     BIT       PSW_PARITY
      000000A8H.4 SFRSYM    DATA     BIT       IE_ES0
      0000009FH   SFRSYM    DATA     BYTE      CMP0MX
      000000A8H.1 SFRSYM    DATA     BIT       IE_ET0
      000000AAH   SFRSYM    DATA     BYTE      CMP1MX
      000000A8H.3 SFRSYM    DATA     BIT       IE_ET1
LX51 LINKER/LOCATER V4.66.30.0                                                        04/06/2017  12:39:39  PAGE 17


      000000D4H   SFRSYM    DATA     BYTE      P0SKIP
      000000A8H.5 SFRSYM    DATA     BIT       IE_ET2
      000000D5H   SFRSYM    DATA     BYTE      P1SKIP
      000000E8H   SFRSYM    DATA     BYTE      ADC0CN0
      000000A8H   SFRSYM    DATA     BIT       IE_EX0
      000000B2H   SFRSYM    DATA     BYTE      ADC0CN1
      000000D8H.6 SFRSYM    DATA     BIT       PCA0CN0_CR
      000000A8H.2 SFRSYM    DATA     BIT       IE_EX1
      00000098H.7 SFRSYM    DATA     BIT       SCON0_SMODE
      000000B5H   SFRSYM    DATA     BYTE      DEVICEID
      000000A9H   SFRSYM    DATA     BYTE      CLKSEL
      000000F8H   SFRSYM    DATA     BIT       SPI0CN0_SPIEN
      000000F0H   SFRSYM    DATA     BYTE      B
      000000BEH   SFRSYM    DATA     BYTE      ADC0H
      000000D2H   SFRSYM    DATA     BYTE      CRC0AUTO
      000000E8H.6 SFRSYM    DATA     BIT       ADC0CN0_ADBMEN
      000000CAH   SFRSYM    DATA     WORD      TMR2RL
      000000BDH   SFRSYM    DATA     BYTE      ADC0L
      00000092H   SFRSYM    DATA     WORD      TMR3RL
      000000D8H   SFRSYM    DATA     BYTE      PCA0CN0
      000000E0H   SFRSYM    DATA     BYTE      ACC
      000000FBH   SFRSYM    DATA     WORD      PCA0CP0
      000000E9H   SFRSYM    DATA     WORD      PCA0CP1
      000000EBH   SFRSYM    DATA     WORD      PCA0CP2
      000000CEH   SFRSYM    DATA     BYTE      CRC0CN0
      0000008CH   SFRSYM    DATA     BYTE      TH0
      000000B8H.4 SFRSYM    DATA     BIT       IP_PS0
      0000008DH   SFRSYM    DATA     BYTE      TH1
      000000FAH   SFRSYM    DATA     BYTE      PCA0H
      000000B8H.1 SFRSYM    DATA     BIT       IP_PT0
      000000B8H.3 SFRSYM    DATA     BIT       IP_PT1
      000000C0H.2 SFRSYM    DATA     BIT       SMB0CN0_ARBLOST
      000000B8H.5 SFRSYM    DATA     BIT       IP_PT2
      0000008AH   SFRSYM    DATA     BYTE      TL0
      000000F8H.1 SFRSYM    DATA     BIT       SPI0CN0_TXBMT
      000000D0H.5 SFRSYM    DATA     BIT       PSW_F0
      000000A8H.6 SFRSYM    DATA     BIT       IE_ESPI0
      0000008BH   SFRSYM    DATA     BYTE      TL1
      000000F9H   SFRSYM    DATA     BYTE      PCA0L
      000000C0H   SFRSYM    DATA     BIT       SMB0CN0_SI
      000000D0H.1 SFRSYM    DATA     BIT       PSW_F1
      00000080H   SFRSYM    DATA     BIT       P0_B0
      000000B8H   SFRSYM    DATA     BIT       IP_PX0
      00000090H   SFRSYM    DATA     BIT       P1_B0
      00000080H.1 SFRSYM    DATA     BIT       P0_B1
      000000B8H.2 SFRSYM    DATA     BIT       IP_PX1
      0000009BH   SFRSYM    DATA     BYTE      CMP0CN0
      00000088H.1 SFRSYM    DATA     BIT       TCON_IE0
      000000A0H   SFRSYM    DATA     BIT       P2_B0
      00000090H.1 SFRSYM    DATA     BIT       P1_B1
      00000080H.2 SFRSYM    DATA     BIT       P0_B2
      000000BFH   SFRSYM    DATA     BYTE      CMP1CN0
      00000088H.3 SFRSYM    DATA     BIT       TCON_IE1
      000000A0H.1 SFRSYM    DATA     BIT       P2_B1
      00000090H.2 SFRSYM    DATA     BIT       P1_B2
      00000080H.3 SFRSYM    DATA     BIT       P0_B3
      000000C0H   SFRSYM    DATA     BYTE      SMB0CN0
      00000090H.3 SFRSYM    DATA     BIT       P1_B3
      00000080H.4 SFRSYM    DATA     BIT       P0_B4
      00000090H.4 SFRSYM    DATA     BIT       P1_B4
      00000080H.5 SFRSYM    DATA     BIT       P0_B5
      00000090H.5 SFRSYM    DATA     BIT       P1_B5
LX51 LINKER/LOCATER V4.66.30.0                                                        04/06/2017  12:39:39  PAGE 18


      00000080H.6 SFRSYM    DATA     BIT       P0_B6
      00000090H.6 SFRSYM    DATA     BIT       P1_B6
      00000080H.7 SFRSYM    DATA     BIT       P0_B7
      00000090H.7 SFRSYM    DATA     BIT       P1_B7
      00000083H   SFRSYM    DATA     BYTE      DPH
      000000C4H   SFRSYM    DATA     BYTE      ADC0GTH
      000000C8H.7 SFRSYM    DATA     BIT       TMR2CN0_TF2H
      000000C8H.3 SFRSYM    DATA     BIT       TMR2CN0_T2SPLIT
      000000D0H.6 SFRSYM    DATA     BIT       PSW_AC
      000000F8H   SFRSYM    DATA     BYTE      SPI0CN0
      000000C7H   SFRSYM    DATA     BYTE      HFO0CAL
      00000088H.5 SFRSYM    DATA     BIT       TCON_TF0
      00000098H   SFRSYM    DATA     BIT       SCON0_RI
      00000082H   SFRSYM    DATA     BYTE      DPL
      00000088H.7 SFRSYM    DATA     BIT       TCON_TF1
      00000099H   SFRSYM    DATA     BYTE      SBUF0
      00000087H   SFRSYM    DATA     BYTE      PCON0
      000000C3H   SFRSYM    DATA     BYTE      ADC0GTL
      000000C8H.6 SFRSYM    DATA     BIT       TMR2CN0_TF2L
      00000098H.1 SFRSYM    DATA     BIT       SCON0_TI
      000000E8H   SFRSYM    DATA     BIT       ADC0CN0_ADCM0
      000000C6H   SFRSYM    DATA     BYTE      ADC0LTH
      00000088H   SFRSYM    DATA     BIT       TCON_IT0
      000000E8H.1 SFRSYM    DATA     BIT       ADC0CN0_ADCM1
      000000EFH   SFRSYM    DATA     BYTE      RSTSRC
      000000FDH   SFRSYM    DATA     BYTE      P0MAT
      000000DEH   SFRSYM    DATA     BYTE      CRC0DAT
      00000088H.2 SFRSYM    DATA     BIT       TCON_IT1
      000000E8H.2 SFRSYM    DATA     BIT       ADC0CN0_ADCM2
      00000098H   SFRSYM    DATA     BYTE      SCON0
      000000F6H   SFRSYM    DATA     BYTE      PRTDRV
      000000EDH   SFRSYM    DATA     BYTE      P1MAT
      000000E8H.3 SFRSYM    DATA     BIT       ADC0CN0_ADWINT
      000000E8H.4 SFRSYM    DATA     BIT       ADC0CN0_ADBUSY
      000000D6H   SFRSYM    DATA     BYTE      SMB0ADM
      000000C5H   SFRSYM    DATA     BYTE      ADC0LTL
      000000F8H.5 SFRSYM    DATA     BIT       SPI0CN0_MODF
      000000B8H.6 SFRSYM    DATA     BIT       IP_PSPI0
      0000009CH   SFRSYM    DATA     BYTE      PCA0CLR
      000000C8H   SFRSYM    DATA     BYTE      TMR2CN0
      00000091H   SFRSYM    DATA     BYTE      TMR3CN0
      000000D7H   SFRSYM    DATA     BYTE      SMB0ADR
      00000088H.4 SFRSYM    DATA     BIT       TCON_TR0
      000000C8H.4 SFRSYM    DATA     BIT       TMR2CN0_TF2CEN
      00000088H.6 SFRSYM    DATA     BIT       TCON_TR1
      000000C2H   SFRSYM    DATA     BYTE      SMB0DAT
      000000CDH   SFRSYM    DATA     BYTE      TMR2H
      000000A1H   SFRSYM    DATA     BYTE      SPI0CFG
      00000095H   SFRSYM    DATA     BYTE      TMR3H
      000000D3H   SFRSYM    DATA     BYTE      CRC0CNT
      00000096H   SFRSYM    DATA     BYTE      PCA0POL
      000000CCH   SFRSYM    DATA     BYTE      TMR2L
      000000F8H.7 SFRSYM    DATA     BIT       SPI0CN0_SPIF
      00000094H   SFRSYM    DATA     BYTE      TMR3L
      000000DFH   SFRSYM    DATA     BYTE      ADC0PWR
      000000A8H.7 SFRSYM    DATA     BIT       IE_EA
      000000C8H.5 SFRSYM    DATA     BIT       TMR2CN0_TF2LEN
      000000F8H.6 SFRSYM    DATA     BIT       SPI0CN0_WCOL
      000000F8H.2 SFRSYM    DATA     BIT       SPI0CN0_NSSMD0
      000000D0H.7 SFRSYM    DATA     BIT       PSW_CY
      000000A3H   SFRSYM    DATA     BYTE      SPI0DAT
      000000F8H.3 SFRSYM    DATA     BIT       SPI0CN0_NSSMD1
LX51 LINKER/LOCATER V4.66.30.0                                                        04/06/2017  12:39:39  PAGE 19


      000000BDH   SFRSYM    DATA     WORD      ADC0
      000000D0H   SFRSYM    DATA     BYTE      PSW
      000000F7H   SFRSYM    DATA     BYTE      PCA0PWM
      000000B6H   SFRSYM    DATA     BYTE      REVID
      000000B7H   SFRSYM    DATA     BYTE      FLKEY
      000000B3H   SFRSYM    DATA     BYTE      ADC0AC

      010016FAH   BLOCK     CODE     ---       LVL=0
      010016FAH   LINE      CODE     ---       #115
      010016FAH   LINE      CODE     ---       #116
      010016FAH   LINE      CODE     ---       #117
      010016FDH   LINE      CODE     ---       #119
      010016FFH   LINE      CODE     ---       #120
      01001701H   LINE      CODE     ---       #121
      01001704H   LINE      CODE     ---       #122
      ---         BLOCKEND  ---      ---       LVL=0

      ---         MODULE    ---      ---       EFM8BB1_FLASHPRIMITIVES
      010013AEH   PUBLIC    CODE     ---       _FLASH_PageErase
      01001385H   PUBLIC    CODE     ---       _FLASH_ByteWrite
      000000A2H   SFRSYM    DATA     BYTE      SPI0CKR
      00000080H   SFRSYM    DATA     BYTE      P0
      000000D0H.2 SFRSYM    DATA     BIT       PSW_OV
      00000090H   SFRSYM    DATA     BYTE      P1
      00000097H   SFRSYM    DATA     BYTE      WDTCN
      000000A0H   SFRSYM    DATA     BYTE      P2
      000000BCH   SFRSYM    DATA     BYTE      ADC0CF
      000000C8H   SFRSYM    DATA     BIT       TMR2CN0_T2XCLK
      000000C0H.7 SFRSYM    DATA     BIT       SMB0CN0_MASTER
      000000F9H   SFRSYM    DATA     WORD      PCA0
      000000E6H   SFRSYM    DATA     BYTE      EIE1
      000000C0H.1 SFRSYM    DATA     BIT       SMB0CN0_ACK
      0000008FH   SFRSYM    DATA     BYTE      PSCTL
      000000E4H   SFRSYM    DATA     BYTE      IT01CF
      000000C0H.6 SFRSYM    DATA     BIT       SMB0CN0_TXMODE
      000000ADH   SFRSYM    DATA     BYTE      DERIVID
      000000A4H   SFRSYM    DATA     BYTE      P0MDOUT
      000000A5H   SFRSYM    DATA     BYTE      P1MDOUT
      000000E8H.5 SFRSYM    DATA     BIT       ADC0CN0_ADINT
      000000CBH   SFRSYM    DATA     BYTE      TMR2RLH
      000000A6H   SFRSYM    DATA     BYTE      P2MDOUT
      000000A8H   SFRSYM    DATA     BYTE      IE
      00000093H   SFRSYM    DATA     BYTE      TMR3RLH
      000000F3H   SFRSYM    DATA     BYTE      EIP1
      00000098H.2 SFRSYM    DATA     BIT       SCON0_RB8
      000000CAH   SFRSYM    DATA     BYTE      TMR2RLL
      000000FCH   SFRSYM    DATA     BYTE      PCA0CPH0
      00000092H   SFRSYM    DATA     BYTE      TMR3RLL
      000000EAH   SFRSYM    DATA     BYTE      PCA0CPH1
      00000098H.3 SFRSYM    DATA     BIT       SCON0_TB8
      000000F0H   SFRSYM    DATA     BIT       B_B0
      00000082H   SFRSYM    DATA     WORD      DP
      000000ECH   SFRSYM    DATA     BYTE      PCA0CPH2
      000000F0H.1 SFRSYM    DATA     BIT       B_B1
      000000C3H   SFRSYM    DATA     WORD      ADC0GT
      000000F0H.2 SFRSYM    DATA     BIT       B_B2
      000000FBH   SFRSYM    DATA     BYTE      PCA0CPL0
      000000F0H.3 SFRSYM    DATA     BIT       B_B3
      000000D9H   SFRSYM    DATA     BYTE      PCA0MD
      000000DAH   SFRSYM    DATA     BYTE      PCA0CPM0
      000000E9H   SFRSYM    DATA     BYTE      PCA0CPL1
      000000F0H.4 SFRSYM    DATA     BIT       B_B4
LX51 LINKER/LOCATER V4.66.30.0                                                        04/06/2017  12:39:39  PAGE 20


      000000DBH   SFRSYM    DATA     BYTE      PCA0CPM1
      000000EBH   SFRSYM    DATA     BYTE      PCA0CPL2
      000000F0H.5 SFRSYM    DATA     BIT       B_B5
      000000DCH   SFRSYM    DATA     BYTE      PCA0CPM2
      000000B8H   SFRSYM    DATA     BYTE      IP
      000000B9H   SFRSYM    DATA     BYTE      ADC0TK
      000000F0H.6 SFRSYM    DATA     BIT       B_B6
      000000C5H   SFRSYM    DATA     WORD      ADC0LT
      00000098H.5 SFRSYM    DATA     BIT       SCON0_MCE
      000000F0H.7 SFRSYM    DATA     BIT       B_B7
      000000E1H   SFRSYM    DATA     BYTE      XBR0
      000000C1H   SFRSYM    DATA     BYTE      SMB0CF
      000000E2H   SFRSYM    DATA     BYTE      XBR1
      000000C0H.5 SFRSYM    DATA     BIT       SMB0CN0_STA
      000000E3H   SFRSYM    DATA     BYTE      XBR2
      000000BBH   SFRSYM    DATA     BYTE      ADC0MX
      000000E0H   SFRSYM    DATA     BIT       ACC_ACC0
      000000D1H   SFRSYM    DATA     BYTE      REF0CN
      0000008EH   SFRSYM    DATA     BYTE      CKCON0
      000000E0H.1 SFRSYM    DATA     BIT       ACC_ACC1
      000000C9H   SFRSYM    DATA     BYTE      REG0CN
      000000DDH   SFRSYM    DATA     BYTE      CRC0IN
      000000C8H.2 SFRSYM    DATA     BIT       TMR2CN0_TR2
      000000E0H.2 SFRSYM    DATA     BIT       ACC_ACC2
      000000E0H.3 SFRSYM    DATA     BIT       ACC_ACC3
      00000081H   SFRSYM    DATA     BYTE      SP
      0000009DH   SFRSYM    DATA     BYTE      CMP0MD
      000000E0H.4 SFRSYM    DATA     BIT       ACC_ACC4
      000000B1H   SFRSYM    DATA     BYTE      LFO0CN
      000000ABH   SFRSYM    DATA     BYTE      CMP1MD
      000000D8H   SFRSYM    DATA     BIT       PCA0CN0_CCF0
      000000E0H.5 SFRSYM    DATA     BIT       ACC_ACC5
      000000D8H.1 SFRSYM    DATA     BIT       PCA0CN0_CCF1
      000000E0H.6 SFRSYM    DATA     BIT       ACC_ACC6
      000000CCH   SFRSYM    DATA     WORD      TMR2
      000000D8H.2 SFRSYM    DATA     BIT       PCA0CN0_CCF2
      000000E0H.7 SFRSYM    DATA     BIT       ACC_ACC7
      00000094H   SFRSYM    DATA     WORD      TMR3
      000000C0H.3 SFRSYM    DATA     BIT       SMB0CN0_ACKRQ
      000000FFH   SFRSYM    DATA     BYTE      VDM0CN
      000000F1H   SFRSYM    DATA     BYTE      P0MDIN
      00000098H.4 SFRSYM    DATA     BIT       SCON0_REN
      000000ACH   SFRSYM    DATA     BYTE      SMB0TC
      000000F2H   SFRSYM    DATA     BYTE      P1MDIN
      000000C0H.4 SFRSYM    DATA     BIT       SMB0CN0_STO
      000000FEH   SFRSYM    DATA     BYTE      P0MASK
      000000EEH   SFRSYM    DATA     BYTE      P1MASK
      000000D0H.3 SFRSYM    DATA     BIT       PSW_RS0
      000000D8H.7 SFRSYM    DATA     BIT       PCA0CN0_CF
      0000009EH   SFRSYM    DATA     BYTE      PCA0CENT
      000000F8H.4 SFRSYM    DATA     BIT       SPI0CN0_RXOVRN
      000000D0H.4 SFRSYM    DATA     BIT       PSW_RS1
      000000E8H.7 SFRSYM    DATA     BIT       ADC0CN0_ADEN
      00000089H   SFRSYM    DATA     BYTE      TMOD
      00000088H   SFRSYM    DATA     BYTE      TCON
      000000CFH   SFRSYM    DATA     BYTE      CRC0FLIP
      000000D0H   SFRSYM    DATA     BIT       PSW_PARITY
      000000A8H.4 SFRSYM    DATA     BIT       IE_ES0
      0000009FH   SFRSYM    DATA     BYTE      CMP0MX
      000000A8H.1 SFRSYM    DATA     BIT       IE_ET0
      000000AAH   SFRSYM    DATA     BYTE      CMP1MX
      000000A8H.3 SFRSYM    DATA     BIT       IE_ET1
LX51 LINKER/LOCATER V4.66.30.0                                                        04/06/2017  12:39:39  PAGE 21


      000000D4H   SFRSYM    DATA     BYTE      P0SKIP
      000000A8H.5 SFRSYM    DATA     BIT       IE_ET2
      000000D5H   SFRSYM    DATA     BYTE      P1SKIP
      000000E8H   SFRSYM    DATA     BYTE      ADC0CN0
      000000A8H   SFRSYM    DATA     BIT       IE_EX0
      000000B2H   SFRSYM    DATA     BYTE      ADC0CN1
      000000D8H.6 SFRSYM    DATA     BIT       PCA0CN0_CR
      000000A8H.2 SFRSYM    DATA     BIT       IE_EX1
      00000098H.7 SFRSYM    DATA     BIT       SCON0_SMODE
      000000B5H   SFRSYM    DATA     BYTE      DEVICEID
      000000A9H   SFRSYM    DATA     BYTE      CLKSEL
      000000F8H   SFRSYM    DATA     BIT       SPI0CN0_SPIEN
      000000F0H   SFRSYM    DATA     BYTE      B
      000000BEH   SFRSYM    DATA     BYTE      ADC0H
      000000D2H   SFRSYM    DATA     BYTE      CRC0AUTO
      000000E8H.6 SFRSYM    DATA     BIT       ADC0CN0_ADBMEN
      000000CAH   SFRSYM    DATA     WORD      TMR2RL
      000000BDH   SFRSYM    DATA     BYTE      ADC0L
      00000092H   SFRSYM    DATA     WORD      TMR3RL
      000000D8H   SFRSYM    DATA     BYTE      PCA0CN0
      000000E0H   SFRSYM    DATA     BYTE      ACC
      000000FBH   SFRSYM    DATA     WORD      PCA0CP0
      000000E9H   SFRSYM    DATA     WORD      PCA0CP1
      000000EBH   SFRSYM    DATA     WORD      PCA0CP2
      000000CEH   SFRSYM    DATA     BYTE      CRC0CN0
      0000008CH   SFRSYM    DATA     BYTE      TH0
      000000B8H.4 SFRSYM    DATA     BIT       IP_PS0
      0000008DH   SFRSYM    DATA     BYTE      TH1
      000000FAH   SFRSYM    DATA     BYTE      PCA0H
      000000B8H.1 SFRSYM    DATA     BIT       IP_PT0
      000000B8H.3 SFRSYM    DATA     BIT       IP_PT1
      000000C0H.2 SFRSYM    DATA     BIT       SMB0CN0_ARBLOST
      000000B8H.5 SFRSYM    DATA     BIT       IP_PT2
      0000008AH   SFRSYM    DATA     BYTE      TL0
      000000F8H.1 SFRSYM    DATA     BIT       SPI0CN0_TXBMT
      000000D0H.5 SFRSYM    DATA     BIT       PSW_F0
      000000A8H.6 SFRSYM    DATA     BIT       IE_ESPI0
      0000008BH   SFRSYM    DATA     BYTE      TL1
      000000F9H   SFRSYM    DATA     BYTE      PCA0L
      000000C0H   SFRSYM    DATA     BIT       SMB0CN0_SI
      000000D0H.1 SFRSYM    DATA     BIT       PSW_F1
      00000080H   SFRSYM    DATA     BIT       P0_B0
      000000B8H   SFRSYM    DATA     BIT       IP_PX0
      00000090H   SFRSYM    DATA     BIT       P1_B0
      00000080H.1 SFRSYM    DATA     BIT       P0_B1
      000000B8H.2 SFRSYM    DATA     BIT       IP_PX1
      0000009BH   SFRSYM    DATA     BYTE      CMP0CN0
      00000088H.1 SFRSYM    DATA     BIT       TCON_IE0
      000000A0H   SFRSYM    DATA     BIT       P2_B0
      00000090H.1 SFRSYM    DATA     BIT       P1_B1
      00000080H.2 SFRSYM    DATA     BIT       P0_B2
      000000BFH   SFRSYM    DATA     BYTE      CMP1CN0
      00000088H.3 SFRSYM    DATA     BIT       TCON_IE1
      000000A0H.1 SFRSYM    DATA     BIT       P2_B1
      00000090H.2 SFRSYM    DATA     BIT       P1_B2
      00000080H.3 SFRSYM    DATA     BIT       P0_B3
      000000C0H   SFRSYM    DATA     BYTE      SMB0CN0
      00000090H.3 SFRSYM    DATA     BIT       P1_B3
      00000080H.4 SFRSYM    DATA     BIT       P0_B4
      00000090H.4 SFRSYM    DATA     BIT       P1_B4
      00000080H.5 SFRSYM    DATA     BIT       P0_B5
      00000090H.5 SFRSYM    DATA     BIT       P1_B5
LX51 LINKER/LOCATER V4.66.30.0                                                        04/06/2017  12:39:39  PAGE 22


      00000080H.6 SFRSYM    DATA     BIT       P0_B6
      00000090H.6 SFRSYM    DATA     BIT       P1_B6
      00000080H.7 SFRSYM    DATA     BIT       P0_B7
      00000090H.7 SFRSYM    DATA     BIT       P1_B7
      00000083H   SFRSYM    DATA     BYTE      DPH
      000000C4H   SFRSYM    DATA     BYTE      ADC0GTH
      000000C8H.7 SFRSYM    DATA     BIT       TMR2CN0_TF2H
      000000C8H.3 SFRSYM    DATA     BIT       TMR2CN0_T2SPLIT
      000000D0H.6 SFRSYM    DATA     BIT       PSW_AC
      000000F8H   SFRSYM    DATA     BYTE      SPI0CN0
      000000C7H   SFRSYM    DATA     BYTE      HFO0CAL
      00000088H.5 SFRSYM    DATA     BIT       TCON_TF0
      00000098H   SFRSYM    DATA     BIT       SCON0_RI
      00000082H   SFRSYM    DATA     BYTE      DPL
      00000088H.7 SFRSYM    DATA     BIT       TCON_TF1
      00000099H   SFRSYM    DATA     BYTE      SBUF0
      00000087H   SFRSYM    DATA     BYTE      PCON0
      000000C3H   SFRSYM    DATA     BYTE      ADC0GTL
      000000C8H.6 SFRSYM    DATA     BIT       TMR2CN0_TF2L
      00000098H.1 SFRSYM    DATA     BIT       SCON0_TI
      000000E8H   SFRSYM    DATA     BIT       ADC0CN0_ADCM0
      000000C6H   SFRSYM    DATA     BYTE      ADC0LTH
      00000088H   SFRSYM    DATA     BIT       TCON_IT0
      000000E8H.1 SFRSYM    DATA     BIT       ADC0CN0_ADCM1
      000000EFH   SFRSYM    DATA     BYTE      RSTSRC
      000000FDH   SFRSYM    DATA     BYTE      P0MAT
      000000DEH   SFRSYM    DATA     BYTE      CRC0DAT
      00000088H.2 SFRSYM    DATA     BIT       TCON_IT1
      000000E8H.2 SFRSYM    DATA     BIT       ADC0CN0_ADCM2
      00000098H   SFRSYM    DATA     BYTE      SCON0
      000000F6H   SFRSYM    DATA     BYTE      PRTDRV
      000000EDH   SFRSYM    DATA     BYTE      P1MAT
      000000E8H.3 SFRSYM    DATA     BIT       ADC0CN0_ADWINT
      000000E8H.4 SFRSYM    DATA     BIT       ADC0CN0_ADBUSY
      000000D6H   SFRSYM    DATA     BYTE      SMB0ADM
      000000C5H   SFRSYM    DATA     BYTE      ADC0LTL
      000000F8H.5 SFRSYM    DATA     BIT       SPI0CN0_MODF
      000000B8H.6 SFRSYM    DATA     BIT       IP_PSPI0
      0000009CH   SFRSYM    DATA     BYTE      PCA0CLR
      000000C8H   SFRSYM    DATA     BYTE      TMR2CN0
      00000091H   SFRSYM    DATA     BYTE      TMR3CN0
      000000D7H   SFRSYM    DATA     BYTE      SMB0ADR
      00000088H.4 SFRSYM    DATA     BIT       TCON_TR0
      000000C8H.4 SFRSYM    DATA     BIT       TMR2CN0_TF2CEN
      00000088H.6 SFRSYM    DATA     BIT       TCON_TR1
      000000C2H   SFRSYM    DATA     BYTE      SMB0DAT
      000000CDH   SFRSYM    DATA     BYTE      TMR2H
      000000A1H   SFRSYM    DATA     BYTE      SPI0CFG
      00000095H   SFRSYM    DATA     BYTE      TMR3H
      000000D3H   SFRSYM    DATA     BYTE      CRC0CNT
      00000096H   SFRSYM    DATA     BYTE      PCA0POL
      000000CCH   SFRSYM    DATA     BYTE      TMR2L
      000000F8H.7 SFRSYM    DATA     BIT       SPI0CN0_SPIF
      00000094H   SFRSYM    DATA     BYTE      TMR3L
      000000DFH   SFRSYM    DATA     BYTE      ADC0PWR
      000000A8H.7 SFRSYM    DATA     BIT       IE_EA
      000000C8H.5 SFRSYM    DATA     BIT       TMR2CN0_TF2LEN
      000000F8H.6 SFRSYM    DATA     BIT       SPI0CN0_WCOL
      000000F8H.2 SFRSYM    DATA     BIT       SPI0CN0_NSSMD0
      000000D0H.7 SFRSYM    DATA     BIT       PSW_CY
      000000A3H   SFRSYM    DATA     BYTE      SPI0DAT
      000000F8H.3 SFRSYM    DATA     BIT       SPI0CN0_NSSMD1
LX51 LINKER/LOCATER V4.66.30.0                                                        04/06/2017  12:39:39  PAGE 23


      000000BDH   SFRSYM    DATA     WORD      ADC0
      000000D0H   SFRSYM    DATA     BYTE      PSW
      000000F7H   SFRSYM    DATA     BYTE      PCA0PWM
      000000B6H   SFRSYM    DATA     BYTE      REVID
      000000B7H   SFRSYM    DATA     BYTE      FLKEY
      000000B3H   SFRSYM    DATA     BYTE      ADC0AC

      01001385H   BLOCK     CODE     ---       LVL=0
      00000006H   SYMBOL    DATA     WORD      addr
      00000005H   SYMBOL    DATA     BYTE      byte
      01001385H   BLOCK     CODE     NEAR LAB  LVL=1
      00000020H.3 SYMBOL    BIT      BIT       EA_SAVE
      00000082H   SYMBOL    DATA     ---       pwrite
      ---         BLOCKEND  ---      ---       LVL=1
      01001385H   LINE      CODE     ---       #48
      01001385H   LINE      CODE     ---       #49
      01001385H   LINE      CODE     ---       #50
      01001389H   LINE      CODE     ---       #53
      0100138BH   LINE      CODE     ---       #55
      0100138EH   LINE      CODE     ---       #57
      01001391H   LINE      CODE     ---       #59
      01001395H   LINE      CODE     ---       #61
      01001398H   LINE      CODE     ---       #62
      0100139BH   LINE      CODE     ---       #63
      0100139EH   LINE      CODE     ---       #65
      010013A1H   LINE      CODE     ---       #67
      010013A4H   LINE      CODE     ---       #68
      010013A6H   LINE      CODE     ---       #70
      010013A9H   LINE      CODE     ---       #72
      010013ADH   LINE      CODE     ---       #73
      ---         BLOCKEND  ---      ---       LVL=0
      00000006H   SYMBOL    DATA     WORD      addr
      00000082H   SYMBOL    DATA     ---       pread
      00000007H   SYMBOL    DATA     BYTE      byte

      010013AEH   BLOCK     CODE     ---       LVL=0
      00000006H   SYMBOL    DATA     WORD      addr
      010013AEH   BLOCK     CODE     NEAR LAB  LVL=1
      00000020H.3 SYMBOL    BIT      BIT       EA_SAVE
      00000082H   SYMBOL    DATA     ---       pwrite
      ---         BLOCKEND  ---      ---       LVL=1
      010013AEH   LINE      CODE     ---       #176
      010013AEH   LINE      CODE     ---       #177
      010013AEH   LINE      CODE     ---       #178
      010013B2H   LINE      CODE     ---       #181
      010013B4H   LINE      CODE     ---       #183
      010013B7H   LINE      CODE     ---       #185
      010013BAH   LINE      CODE     ---       #187
      010013BEH   LINE      CODE     ---       #189
      010013C1H   LINE      CODE     ---       #190
      010013C4H   LINE      CODE     ---       #191
      010013C7H   LINE      CODE     ---       #193
      010013CAH   LINE      CODE     ---       #195
      010013CDH   LINE      CODE     ---       #196
      010013CFH   LINE      CODE     ---       #198
      010013D2H   LINE      CODE     ---       #200
      010013D6H   LINE      CODE     ---       #201
      ---         BLOCKEND  ---      ---       LVL=0

      ---         MODULE    ---      ---       INITDEVICE
      010017E9H   PUBLIC    CODE     ---       PORTS_2_enter_DefaultMode_from_RESET
      0100178EH   PUBLIC    CODE     ---       INTERRUPT_0_enter_DefaultMode_from_RESET
LX51 LINKER/LOCATER V4.66.30.0                                                        04/06/2017  12:39:39  PAGE 24


      010017E5H   PUBLIC    CODE     ---       UART_0_enter_DefaultMode_from_RESET
      01001752H   PUBLIC    CODE     ---       TIMER_SETUP_0_enter_DefaultMode_from_RESET
      010016BAH   PUBLIC    CODE     ---       TIMER16_2_enter_DefaultMode_from_RESET
      0100168DH   PUBLIC    CODE     ---       TIMER01_0_enter_DefaultMode_from_RESET
      010017E1H   PUBLIC    CODE     ---       CLOCK_0_enter_DefaultMode_from_RESET
      010017DDH   PUBLIC    CODE     ---       VREF_0_enter_DefaultMode_from_RESET
      010016EDH   PUBLIC    CODE     ---       ADC_0_enter_DefaultMode_from_RESET
      01001787H   PUBLIC    CODE     ---       PBCFG_0_enter_DefaultMode_from_RESET
      01001748H   PUBLIC    CODE     ---       PORTS_1_enter_DefaultMode_from_RESET
      0100173EH   PUBLIC    CODE     ---       PORTS_0_enter_DefaultMode_from_RESET
      01001780H   PUBLIC    CODE     ---       WDT_0_enter_DefaultMode_from_RESET
      01001400H   PUBLIC    CODE     ---       enter_DefaultMode_from_RESET
      000000A2H   SFRSYM    DATA     BYTE      SPI0CKR
      00000080H   SFRSYM    DATA     BYTE      P0
      000000D0H.2 SFRSYM    DATA     BIT       PSW_OV
      00000090H   SFRSYM    DATA     BYTE      P1
      00000097H   SFRSYM    DATA     BYTE      WDTCN
      000000A0H   SFRSYM    DATA     BYTE      P2
      000000BCH   SFRSYM    DATA     BYTE      ADC0CF
      000000C8H   SFRSYM    DATA     BIT       TMR2CN0_T2XCLK
      000000C0H.7 SFRSYM    DATA     BIT       SMB0CN0_MASTER
      000000F9H   SFRSYM    DATA     WORD      PCA0
      000000E6H   SFRSYM    DATA     BYTE      EIE1
      000000C0H.1 SFRSYM    DATA     BIT       SMB0CN0_ACK
      0000008FH   SFRSYM    DATA     BYTE      PSCTL
      000000E4H   SFRSYM    DATA     BYTE      IT01CF
      000000C0H.6 SFRSYM    DATA     BIT       SMB0CN0_TXMODE
      000000ADH   SFRSYM    DATA     BYTE      DERIVID
      000000A4H   SFRSYM    DATA     BYTE      P0MDOUT
      000000A5H   SFRSYM    DATA     BYTE      P1MDOUT
      000000E8H.5 SFRSYM    DATA     BIT       ADC0CN0_ADINT
      000000CBH   SFRSYM    DATA     BYTE      TMR2RLH
      000000A6H   SFRSYM    DATA     BYTE      P2MDOUT
      000000A8H   SFRSYM    DATA     BYTE      IE
      00000093H   SFRSYM    DATA     BYTE      TMR3RLH
      000000F3H   SFRSYM    DATA     BYTE      EIP1
      00000098H.2 SFRSYM    DATA     BIT       SCON0_RB8
      000000CAH   SFRSYM    DATA     BYTE      TMR2RLL
      000000FCH   SFRSYM    DATA     BYTE      PCA0CPH0
      00000092H   SFRSYM    DATA     BYTE      TMR3RLL
      000000EAH   SFRSYM    DATA     BYTE      PCA0CPH1
      00000098H.3 SFRSYM    DATA     BIT       SCON0_TB8
      000000F0H   SFRSYM    DATA     BIT       B_B0
      00000082H   SFRSYM    DATA     WORD      DP
      000000ECH   SFRSYM    DATA     BYTE      PCA0CPH2
      000000F0H.1 SFRSYM    DATA     BIT       B_B1
      000000C3H   SFRSYM    DATA     WORD      ADC0GT
      000000F0H.2 SFRSYM    DATA     BIT       B_B2
      000000FBH   SFRSYM    DATA     BYTE      PCA0CPL0
      000000F0H.3 SFRSYM    DATA     BIT       B_B3
      000000D9H   SFRSYM    DATA     BYTE      PCA0MD
      000000DAH   SFRSYM    DATA     BYTE      PCA0CPM0
      000000E9H   SFRSYM    DATA     BYTE      PCA0CPL1
      000000F0H.4 SFRSYM    DATA     BIT       B_B4
      000000DBH   SFRSYM    DATA     BYTE      PCA0CPM1
      000000EBH   SFRSYM    DATA     BYTE      PCA0CPL2
      000000F0H.5 SFRSYM    DATA     BIT       B_B5
      000000DCH   SFRSYM    DATA     BYTE      PCA0CPM2
      000000B8H   SFRSYM    DATA     BYTE      IP
      000000B9H   SFRSYM    DATA     BYTE      ADC0TK
      000000F0H.6 SFRSYM    DATA     BIT       B_B6
      000000C5H   SFRSYM    DATA     WORD      ADC0LT
LX51 LINKER/LOCATER V4.66.30.0                                                        04/06/2017  12:39:39  PAGE 25


      00000098H.5 SFRSYM    DATA     BIT       SCON0_MCE
      000000F0H.7 SFRSYM    DATA     BIT       B_B7
      000000E1H   SFRSYM    DATA     BYTE      XBR0
      000000C1H   SFRSYM    DATA     BYTE      SMB0CF
      000000E2H   SFRSYM    DATA     BYTE      XBR1
      000000C0H.5 SFRSYM    DATA     BIT       SMB0CN0_STA
      000000E3H   SFRSYM    DATA     BYTE      XBR2
      000000BBH   SFRSYM    DATA     BYTE      ADC0MX
      000000E0H   SFRSYM    DATA     BIT       ACC_ACC0
      000000D1H   SFRSYM    DATA     BYTE      REF0CN
      0000008EH   SFRSYM    DATA     BYTE      CKCON0
      000000E0H.1 SFRSYM    DATA     BIT       ACC_ACC1
      000000C9H   SFRSYM    DATA     BYTE      REG0CN
      000000DDH   SFRSYM    DATA     BYTE      CRC0IN
      000000C8H.2 SFRSYM    DATA     BIT       TMR2CN0_TR2
      000000E0H.2 SFRSYM    DATA     BIT       ACC_ACC2
      000000E0H.3 SFRSYM    DATA     BIT       ACC_ACC3
      00000081H   SFRSYM    DATA     BYTE      SP
      0000009DH   SFRSYM    DATA     BYTE      CMP0MD
      000000E0H.4 SFRSYM    DATA     BIT       ACC_ACC4
      000000B1H   SFRSYM    DATA     BYTE      LFO0CN
      000000ABH   SFRSYM    DATA     BYTE      CMP1MD
      000000D8H   SFRSYM    DATA     BIT       PCA0CN0_CCF0
      000000E0H.5 SFRSYM    DATA     BIT       ACC_ACC5
      000000D8H.1 SFRSYM    DATA     BIT       PCA0CN0_CCF1
      000000E0H.6 SFRSYM    DATA     BIT       ACC_ACC6
      000000CCH   SFRSYM    DATA     WORD      TMR2
      000000D8H.2 SFRSYM    DATA     BIT       PCA0CN0_CCF2
      000000E0H.7 SFRSYM    DATA     BIT       ACC_ACC7
      00000094H   SFRSYM    DATA     WORD      TMR3
      000000C0H.3 SFRSYM    DATA     BIT       SMB0CN0_ACKRQ
      000000FFH   SFRSYM    DATA     BYTE      VDM0CN
      000000F1H   SFRSYM    DATA     BYTE      P0MDIN
      00000098H.4 SFRSYM    DATA     BIT       SCON0_REN
      000000ACH   SFRSYM    DATA     BYTE      SMB0TC
      000000F2H   SFRSYM    DATA     BYTE      P1MDIN
      000000C0H.4 SFRSYM    DATA     BIT       SMB0CN0_STO
      000000FEH   SFRSYM    DATA     BYTE      P0MASK
      000000EEH   SFRSYM    DATA     BYTE      P1MASK
      000000D0H.3 SFRSYM    DATA     BIT       PSW_RS0
      000000D8H.7 SFRSYM    DATA     BIT       PCA0CN0_CF
      0000009EH   SFRSYM    DATA     BYTE      PCA0CENT
      000000F8H.4 SFRSYM    DATA     BIT       SPI0CN0_RXOVRN
      000000D0H.4 SFRSYM    DATA     BIT       PSW_RS1
      000000E8H.7 SFRSYM    DATA     BIT       ADC0CN0_ADEN
      00000089H   SFRSYM    DATA     BYTE      TMOD
      00000088H   SFRSYM    DATA     BYTE      TCON
      000000CFH   SFRSYM    DATA     BYTE      CRC0FLIP
      000000D0H   SFRSYM    DATA     BIT       PSW_PARITY
      000000A8H.4 SFRSYM    DATA     BIT       IE_ES0
      0000009FH   SFRSYM    DATA     BYTE      CMP0MX
      000000A8H.1 SFRSYM    DATA     BIT       IE_ET0
      000000AAH   SFRSYM    DATA     BYTE      CMP1MX
      000000A8H.3 SFRSYM    DATA     BIT       IE_ET1
      000000D4H   SFRSYM    DATA     BYTE      P0SKIP
      000000A8H.5 SFRSYM    DATA     BIT       IE_ET2
      000000D5H   SFRSYM    DATA     BYTE      P1SKIP
      000000E8H   SFRSYM    DATA     BYTE      ADC0CN0
      000000A8H   SFRSYM    DATA     BIT       IE_EX0
      000000B2H   SFRSYM    DATA     BYTE      ADC0CN1
      000000D8H.6 SFRSYM    DATA     BIT       PCA0CN0_CR
      000000A8H.2 SFRSYM    DATA     BIT       IE_EX1
LX51 LINKER/LOCATER V4.66.30.0                                                        04/06/2017  12:39:39  PAGE 26


      00000098H.7 SFRSYM    DATA     BIT       SCON0_SMODE
      000000B5H   SFRSYM    DATA     BYTE      DEVICEID
      000000A9H   SFRSYM    DATA     BYTE      CLKSEL
      000000F8H   SFRSYM    DATA     BIT       SPI0CN0_SPIEN
      000000F0H   SFRSYM    DATA     BYTE      B
      000000BEH   SFRSYM    DATA     BYTE      ADC0H
      000000D2H   SFRSYM    DATA     BYTE      CRC0AUTO
      000000E8H.6 SFRSYM    DATA     BIT       ADC0CN0_ADBMEN
      000000CAH   SFRSYM    DATA     WORD      TMR2RL
      000000BDH   SFRSYM    DATA     BYTE      ADC0L
      00000092H   SFRSYM    DATA     WORD      TMR3RL
      000000D8H   SFRSYM    DATA     BYTE      PCA0CN0
      000000E0H   SFRSYM    DATA     BYTE      ACC
      000000FBH   SFRSYM    DATA     WORD      PCA0CP0
      000000E9H   SFRSYM    DATA     WORD      PCA0CP1
      000000EBH   SFRSYM    DATA     WORD      PCA0CP2
      000000CEH   SFRSYM    DATA     BYTE      CRC0CN0
      0000008CH   SFRSYM    DATA     BYTE      TH0
      000000B8H.4 SFRSYM    DATA     BIT       IP_PS0
      0000008DH   SFRSYM    DATA     BYTE      TH1
      000000FAH   SFRSYM    DATA     BYTE      PCA0H
      000000B8H.1 SFRSYM    DATA     BIT       IP_PT0
      000000B8H.3 SFRSYM    DATA     BIT       IP_PT1
      000000C0H.2 SFRSYM    DATA     BIT       SMB0CN0_ARBLOST
      000000B8H.5 SFRSYM    DATA     BIT       IP_PT2
      0000008AH   SFRSYM    DATA     BYTE      TL0
      000000F8H.1 SFRSYM    DATA     BIT       SPI0CN0_TXBMT
      000000D0H.5 SFRSYM    DATA     BIT       PSW_F0
      000000A8H.6 SFRSYM    DATA     BIT       IE_ESPI0
      0000008BH   SFRSYM    DATA     BYTE      TL1
      000000F9H   SFRSYM    DATA     BYTE      PCA0L
      000000C0H   SFRSYM    DATA     BIT       SMB0CN0_SI
      000000D0H.1 SFRSYM    DATA     BIT       PSW_F1
      00000080H   SFRSYM    DATA     BIT       P0_B0
      000000B8H   SFRSYM    DATA     BIT       IP_PX0
      00000090H   SFRSYM    DATA     BIT       P1_B0
      00000080H.1 SFRSYM    DATA     BIT       P0_B1
      000000B8H.2 SFRSYM    DATA     BIT       IP_PX1
      0000009BH   SFRSYM    DATA     BYTE      CMP0CN0
      00000088H.1 SFRSYM    DATA     BIT       TCON_IE0
      000000A0H   SFRSYM    DATA     BIT       P2_B0
      00000090H.1 SFRSYM    DATA     BIT       P1_B1
      00000080H.2 SFRSYM    DATA     BIT       P0_B2
      000000BFH   SFRSYM    DATA     BYTE      CMP1CN0
      00000088H.3 SFRSYM    DATA     BIT       TCON_IE1
      000000A0H.1 SFRSYM    DATA     BIT       P2_B1
      00000090H.2 SFRSYM    DATA     BIT       P1_B2
      00000080H.3 SFRSYM    DATA     BIT       P0_B3
      000000C0H   SFRSYM    DATA     BYTE      SMB0CN0
      00000090H.3 SFRSYM    DATA     BIT       P1_B3
      00000080H.4 SFRSYM    DATA     BIT       P0_B4
      00000090H.4 SFRSYM    DATA     BIT       P1_B4
      00000080H.5 SFRSYM    DATA     BIT       P0_B5
      00000090H.5 SFRSYM    DATA     BIT       P1_B5
      00000080H.6 SFRSYM    DATA     BIT       P0_B6
      00000090H.6 SFRSYM    DATA     BIT       P1_B6
      00000080H.7 SFRSYM    DATA     BIT       P0_B7
      00000090H.7 SFRSYM    DATA     BIT       P1_B7
      00000083H   SFRSYM    DATA     BYTE      DPH
      000000C4H   SFRSYM    DATA     BYTE      ADC0GTH
      000000C8H.7 SFRSYM    DATA     BIT       TMR2CN0_TF2H
      000000C8H.3 SFRSYM    DATA     BIT       TMR2CN0_T2SPLIT
LX51 LINKER/LOCATER V4.66.30.0                                                        04/06/2017  12:39:39  PAGE 27


      000000D0H.6 SFRSYM    DATA     BIT       PSW_AC
      000000F8H   SFRSYM    DATA     BYTE      SPI0CN0
      000000C7H   SFRSYM    DATA     BYTE      HFO0CAL
      00000088H.5 SFRSYM    DATA     BIT       TCON_TF0
      00000098H   SFRSYM    DATA     BIT       SCON0_RI
      00000082H   SFRSYM    DATA     BYTE      DPL
      00000088H.7 SFRSYM    DATA     BIT       TCON_TF1
      00000099H   SFRSYM    DATA     BYTE      SBUF0
      00000087H   SFRSYM    DATA     BYTE      PCON0
      000000C3H   SFRSYM    DATA     BYTE      ADC0GTL
      000000C8H.6 SFRSYM    DATA     BIT       TMR2CN0_TF2L
      00000098H.1 SFRSYM    DATA     BIT       SCON0_TI
      000000E8H   SFRSYM    DATA     BIT       ADC0CN0_ADCM0
      000000C6H   SFRSYM    DATA     BYTE      ADC0LTH
      00000088H   SFRSYM    DATA     BIT       TCON_IT0
      000000E8H.1 SFRSYM    DATA     BIT       ADC0CN0_ADCM1
      000000EFH   SFRSYM    DATA     BYTE      RSTSRC
      000000FDH   SFRSYM    DATA     BYTE      P0MAT
      000000DEH   SFRSYM    DATA     BYTE      CRC0DAT
      00000088H.2 SFRSYM    DATA     BIT       TCON_IT1
      000000E8H.2 SFRSYM    DATA     BIT       ADC0CN0_ADCM2
      00000098H   SFRSYM    DATA     BYTE      SCON0
      000000F6H   SFRSYM    DATA     BYTE      PRTDRV
      000000EDH   SFRSYM    DATA     BYTE      P1MAT
      000000E8H.3 SFRSYM    DATA     BIT       ADC0CN0_ADWINT
      000000E8H.4 SFRSYM    DATA     BIT       ADC0CN0_ADBUSY
      000000D6H   SFRSYM    DATA     BYTE      SMB0ADM
      000000C5H   SFRSYM    DATA     BYTE      ADC0LTL
      000000F8H.5 SFRSYM    DATA     BIT       SPI0CN0_MODF
      000000B8H.6 SFRSYM    DATA     BIT       IP_PSPI0
      0000009CH   SFRSYM    DATA     BYTE      PCA0CLR
      000000C8H   SFRSYM    DATA     BYTE      TMR2CN0
      00000091H   SFRSYM    DATA     BYTE      TMR3CN0
      000000D7H   SFRSYM    DATA     BYTE      SMB0ADR
      00000088H.4 SFRSYM    DATA     BIT       TCON_TR0
      000000C8H.4 SFRSYM    DATA     BIT       TMR2CN0_TF2CEN
      00000088H.6 SFRSYM    DATA     BIT       TCON_TR1
      000000C2H   SFRSYM    DATA     BYTE      SMB0DAT
      000000CDH   SFRSYM    DATA     BYTE      TMR2H
      000000A1H   SFRSYM    DATA     BYTE      SPI0CFG
      00000095H   SFRSYM    DATA     BYTE      TMR3H
      000000D3H   SFRSYM    DATA     BYTE      CRC0CNT
      00000096H   SFRSYM    DATA     BYTE      PCA0POL
      000000CCH   SFRSYM    DATA     BYTE      TMR2L
      000000F8H.7 SFRSYM    DATA     BIT       SPI0CN0_SPIF
      00000094H   SFRSYM    DATA     BYTE      TMR3L
      000000DFH   SFRSYM    DATA     BYTE      ADC0PWR
      000000A8H.7 SFRSYM    DATA     BIT       IE_EA
      000000C8H.5 SFRSYM    DATA     BIT       TMR2CN0_TF2LEN
      000000F8H.6 SFRSYM    DATA     BIT       SPI0CN0_WCOL
      000000F8H.2 SFRSYM    DATA     BIT       SPI0CN0_NSSMD0
      000000D0H.7 SFRSYM    DATA     BIT       PSW_CY
      000000A3H   SFRSYM    DATA     BYTE      SPI0DAT
      000000F8H.3 SFRSYM    DATA     BIT       SPI0CN0_NSSMD1
      000000BDH   SFRSYM    DATA     WORD      ADC0
      000000D0H   SFRSYM    DATA     BYTE      PSW
      000000F7H   SFRSYM    DATA     BYTE      PCA0PWM
      000000B6H   SFRSYM    DATA     BYTE      REVID
      000000B7H   SFRSYM    DATA     BYTE      FLKEY
      000000B3H   SFRSYM    DATA     BYTE      ADC0AC

      01001400H   BLOCK     CODE     ---       LVL=0
LX51 LINKER/LOCATER V4.66.30.0                                                        04/06/2017  12:39:39  PAGE 28


      01001400H   LINE      CODE     ---       #23
      01001400H   LINE      CODE     ---       #25
      01001403H   LINE      CODE     ---       #26
      01001406H   LINE      CODE     ---       #27
      01001409H   LINE      CODE     ---       #28
      0100140CH   LINE      CODE     ---       #29
      0100140FH   LINE      CODE     ---       #30
      01001412H   LINE      CODE     ---       #31
      01001415H   LINE      CODE     ---       #32
      01001418H   LINE      CODE     ---       #33
      0100141BH   LINE      CODE     ---       #34
      0100141EH   LINE      CODE     ---       #35
      01001421H   LINE      CODE     ---       #36
      01001424H   LINE      CODE     ---       #37
      ---         BLOCKEND  ---      ---       LVL=0

      01001780H   BLOCK     CODE     ---       LVL=0
      01001780H   LINE      CODE     ---       #47
      01001780H   LINE      CODE     ---       #50
      01001783H   LINE      CODE     ---       #51
      01001786H   LINE      CODE     ---       #55
      ---         BLOCKEND  ---      ---       LVL=0

      0100173EH   BLOCK     CODE     ---       LVL=0
      0100173EH   LINE      CODE     ---       #60
      0100173EH   LINE      CODE     ---       #78
      01001741H   LINE      CODE     ---       #102
      01001744H   LINE      CODE     ---       #126
      01001747H   LINE      CODE     ---       #138
      ---         BLOCKEND  ---      ---       LVL=0

      01001748H   BLOCK     CODE     ---       LVL=0
      01001748H   LINE      CODE     ---       #143
      01001748H   LINE      CODE     ---       #164
      0100174BH   LINE      CODE     ---       #188
      0100174EH   LINE      CODE     ---       #212
      01001751H   LINE      CODE     ---       #224
      ---         BLOCKEND  ---      ---       LVL=0

      01001787H   BLOCK     CODE     ---       LVL=0
      01001787H   LINE      CODE     ---       #229
      01001787H   LINE      CODE     ---       #237
      0100178AH   LINE      CODE     ---       #261
      0100178DH   LINE      CODE     ---       #270
      ---         BLOCKEND  ---      ---       LVL=0

      010016EDH   BLOCK     CODE     ---       LVL=0
      010016EDH   LINE      CODE     ---       #275
      010016EDH   LINE      CODE     ---       #283
      010016F0H   LINE      CODE     ---       #296
      010016F3H   LINE      CODE     ---       #328
      010016F6H   LINE      CODE     ---       #329
      010016F9H   LINE      CODE     ---       #334
      ---         BLOCKEND  ---      ---       LVL=0

      010017DDH   BLOCK     CODE     ---       LVL=0
      010017DDH   LINE      CODE     ---       #339
      010017DDH   LINE      CODE     ---       #351
      010017E0H   LINE      CODE     ---       #356
      ---         BLOCKEND  ---      ---       LVL=0

      010017E1H   BLOCK     CODE     ---       LVL=0
LX51 LINKER/LOCATER V4.66.30.0                                                        04/06/2017  12:39:39  PAGE 29


      010017E1H   LINE      CODE     ---       #361
      010017E1H   LINE      CODE     ---       #369
      010017E4H   LINE      CODE     ---       #373
      ---         BLOCKEND  ---      ---       LVL=0

      0100168DH   BLOCK     CODE     ---       LVL=0
      0100168DH   BLOCK     CODE     NEAR LAB  LVL=1
      00000007H   SYMBOL    DATA     BYTE      TCON_save
      ---         BLOCKEND  ---      ---       LVL=1
      0100168DH   LINE      CODE     ---       #378
      0100168DH   LINE      CODE     ---       #382
      0100168FH   LINE      CODE     ---       #384
      01001692H   LINE      CODE     ---       #392
      01001695H   LINE      CODE     ---       #399
      01001698H   LINE      CODE     ---       #406
      0100169BH   LINE      CODE     ---       #414
      010016A5H   LINE      CODE     ---       #419
      ---         BLOCKEND  ---      ---       LVL=0

      010016BAH   BLOCK     CODE     ---       LVL=0
      010016BAH   BLOCK     CODE     NEAR LAB  LVL=1
      00000007H   SYMBOL    DATA     BYTE      TMR2CN0_TR2_save
      ---         BLOCKEND  ---      ---       LVL=1
      010016BAH   LINE      CODE     ---       #424
      010016BAH   LINE      CODE     ---       #428
      010016BEH   LINE      CODE     ---       #430
      010016C1H   LINE      CODE     ---       #446
      010016C4H   LINE      CODE     ---       #453
      010016C7H   LINE      CODE     ---       #460
      010016CAH   LINE      CODE     ---       #465
      010016CCH   LINE      CODE     ---       #469
      ---         BLOCKEND  ---      ---       LVL=0

      01001752H   BLOCK     CODE     ---       LVL=0
      01001752H   LINE      CODE     ---       #474
      01001752H   LINE      CODE     ---       #490
      01001755H   LINE      CODE     ---       #509
      01001758H   LINE      CODE     ---       #518
      0100175BH   LINE      CODE     ---       #522
      ---         BLOCKEND  ---      ---       LVL=0

      010017E5H   BLOCK     CODE     ---       LVL=0
      010017E5H   LINE      CODE     ---       #527
      010017E5H   LINE      CODE     ---       #532
      010017E8H   LINE      CODE     ---       #536
      ---         BLOCKEND  ---      ---       LVL=0

      0100178EH   BLOCK     CODE     ---       LVL=0
      0100178EH   LINE      CODE     ---       #541
      0100178EH   LINE      CODE     ---       #561
      01001791H   LINE      CODE     ---       #585
      01001794H   LINE      CODE     ---       #593
      ---         BLOCKEND  ---      ---       LVL=0

      010017E9H   BLOCK     CODE     ---       LVL=0
      010017E9H   LINE      CODE     ---       #596
      010017E9H   LINE      CODE     ---       #606
      010017ECH   LINE      CODE     ---       #610
      ---         BLOCKEND  ---      ---       LVL=0

      ---         MODULE    ---      ---       INTERRUPTS
      010011D9H   PUBLIC    CODE     ---       TIMER0_ISR
LX51 LINKER/LOCATER V4.66.30.0                                                        04/06/2017  12:39:39  PAGE 30


      01000052H   PUBLIC    CODE     ---       TIMER2_ISR
      01001283H   PUBLIC    CODE     ---       ADC0EOC_ISR
      000000A2H   SFRSYM    DATA     BYTE      SPI0CKR
      00000080H   SFRSYM    DATA     BYTE      P0
      000000D0H.2 SFRSYM    DATA     BIT       PSW_OV
      00000090H   SFRSYM    DATA     BYTE      P1
      00000097H   SFRSYM    DATA     BYTE      WDTCN
      000000A0H   SFRSYM    DATA     BYTE      P2
      000000BCH   SFRSYM    DATA     BYTE      ADC0CF
      000000C8H   SFRSYM    DATA     BIT       TMR2CN0_T2XCLK
      000000C0H.7 SFRSYM    DATA     BIT       SMB0CN0_MASTER
      000000F9H   SFRSYM    DATA     WORD      PCA0
      000000E6H   SFRSYM    DATA     BYTE      EIE1
      000000C0H.1 SFRSYM    DATA     BIT       SMB0CN0_ACK
      0000008FH   SFRSYM    DATA     BYTE      PSCTL
      000000E4H   SFRSYM    DATA     BYTE      IT01CF
      000000C0H.6 SFRSYM    DATA     BIT       SMB0CN0_TXMODE
      000000ADH   SFRSYM    DATA     BYTE      DERIVID
      000000A4H   SFRSYM    DATA     BYTE      P0MDOUT
      000000A5H   SFRSYM    DATA     BYTE      P1MDOUT
      000000E8H.5 SFRSYM    DATA     BIT       ADC0CN0_ADINT
      000000CBH   SFRSYM    DATA     BYTE      TMR2RLH
      000000A6H   SFRSYM    DATA     BYTE      P2MDOUT
      000000A8H   SFRSYM    DATA     BYTE      IE
      00000093H   SFRSYM    DATA     BYTE      TMR3RLH
      000000F3H   SFRSYM    DATA     BYTE      EIP1
      00000098H.2 SFRSYM    DATA     BIT       SCON0_RB8
      000000CAH   SFRSYM    DATA     BYTE      TMR2RLL
      000000FCH   SFRSYM    DATA     BYTE      PCA0CPH0
      00000092H   SFRSYM    DATA     BYTE      TMR3RLL
      000000EAH   SFRSYM    DATA     BYTE      PCA0CPH1
      00000098H.3 SFRSYM    DATA     BIT       SCON0_TB8
      000000F0H   SFRSYM    DATA     BIT       B_B0
      00000082H   SFRSYM    DATA     WORD      DP
      000000ECH   SFRSYM    DATA     BYTE      PCA0CPH2
      000000F0H.1 SFRSYM    DATA     BIT       B_B1
      000000C3H   SFRSYM    DATA     WORD      ADC0GT
      000000F0H.2 SFRSYM    DATA     BIT       B_B2
      000000FBH   SFRSYM    DATA     BYTE      PCA0CPL0
      000000F0H.3 SFRSYM    DATA     BIT       B_B3
      000000D9H   SFRSYM    DATA     BYTE      PCA0MD
      000000DAH   SFRSYM    DATA     BYTE      PCA0CPM0
      000000E9H   SFRSYM    DATA     BYTE      PCA0CPL1
      000000F0H.4 SFRSYM    DATA     BIT       B_B4
      000000DBH   SFRSYM    DATA     BYTE      PCA0CPM1
      000000EBH   SFRSYM    DATA     BYTE      PCA0CPL2
      000000F0H.5 SFRSYM    DATA     BIT       B_B5
      000000DCH   SFRSYM    DATA     BYTE      PCA0CPM2
      000000B8H   SFRSYM    DATA     BYTE      IP
      000000B9H   SFRSYM    DATA     BYTE      ADC0TK
      000000F0H.6 SFRSYM    DATA     BIT       B_B6
      000000C5H   SFRSYM    DATA     WORD      ADC0LT
      00000098H.5 SFRSYM    DATA     BIT       SCON0_MCE
      000000F0H.7 SFRSYM    DATA     BIT       B_B7
      000000E1H   SFRSYM    DATA     BYTE      XBR0
      000000C1H   SFRSYM    DATA     BYTE      SMB0CF
      000000E2H   SFRSYM    DATA     BYTE      XBR1
      000000C0H.5 SFRSYM    DATA     BIT       SMB0CN0_STA
      000000E3H   SFRSYM    DATA     BYTE      XBR2
      000000BBH   SFRSYM    DATA     BYTE      ADC0MX
      000000E0H   SFRSYM    DATA     BIT       ACC_ACC0
      000000D1H   SFRSYM    DATA     BYTE      REF0CN
LX51 LINKER/LOCATER V4.66.30.0                                                        04/06/2017  12:39:39  PAGE 31


      0000008EH   SFRSYM    DATA     BYTE      CKCON0
      000000E0H.1 SFRSYM    DATA     BIT       ACC_ACC1
      000000C9H   SFRSYM    DATA     BYTE      REG0CN
      000000DDH   SFRSYM    DATA     BYTE      CRC0IN
      000000C8H.2 SFRSYM    DATA     BIT       TMR2CN0_TR2
      000000E0H.2 SFRSYM    DATA     BIT       ACC_ACC2
      000000E0H.3 SFRSYM    DATA     BIT       ACC_ACC3
      00000081H   SFRSYM    DATA     BYTE      SP
      0000009DH   SFRSYM    DATA     BYTE      CMP0MD
      000000E0H.4 SFRSYM    DATA     BIT       ACC_ACC4
      000000B1H   SFRSYM    DATA     BYTE      LFO0CN
      000000ABH   SFRSYM    DATA     BYTE      CMP1MD
      000000D8H   SFRSYM    DATA     BIT       PCA0CN0_CCF0
      000000E0H.5 SFRSYM    DATA     BIT       ACC_ACC5
      000000D8H.1 SFRSYM    DATA     BIT       PCA0CN0_CCF1
      000000E0H.6 SFRSYM    DATA     BIT       ACC_ACC6
      000000CCH   SFRSYM    DATA     WORD      TMR2
      000000D8H.2 SFRSYM    DATA     BIT       PCA0CN0_CCF2
      000000E0H.7 SFRSYM    DATA     BIT       ACC_ACC7
      00000094H   SFRSYM    DATA     WORD      TMR3
      000000C0H.3 SFRSYM    DATA     BIT       SMB0CN0_ACKRQ
      000000FFH   SFRSYM    DATA     BYTE      VDM0CN
      000000F1H   SFRSYM    DATA     BYTE      P0MDIN
      00000098H.4 SFRSYM    DATA     BIT       SCON0_REN
      000000ACH   SFRSYM    DATA     BYTE      SMB0TC
      000000F2H   SFRSYM    DATA     BYTE      P1MDIN
      000000C0H.4 SFRSYM    DATA     BIT       SMB0CN0_STO
      000000FEH   SFRSYM    DATA     BYTE      P0MASK
      000000EEH   SFRSYM    DATA     BYTE      P1MASK
      000000D0H.3 SFRSYM    DATA     BIT       PSW_RS0
      000000D8H.7 SFRSYM    DATA     BIT       PCA0CN0_CF
      0000009EH   SFRSYM    DATA     BYTE      PCA0CENT
      000000F8H.4 SFRSYM    DATA     BIT       SPI0CN0_RXOVRN
      000000D0H.4 SFRSYM    DATA     BIT       PSW_RS1
      000000E8H.7 SFRSYM    DATA     BIT       ADC0CN0_ADEN
      00000089H   SFRSYM    DATA     BYTE      TMOD
      00000088H   SFRSYM    DATA     BYTE      TCON
      000000CFH   SFRSYM    DATA     BYTE      CRC0FLIP
      000000D0H   SFRSYM    DATA     BIT       PSW_PARITY
      000000A8H.4 SFRSYM    DATA     BIT       IE_ES0
      0000009FH   SFRSYM    DATA     BYTE      CMP0MX
      000000A8H.1 SFRSYM    DATA     BIT       IE_ET0
      000000AAH   SFRSYM    DATA     BYTE      CMP1MX
      000000A8H.3 SFRSYM    DATA     BIT       IE_ET1
      000000D4H   SFRSYM    DATA     BYTE      P0SKIP
      000000A8H.5 SFRSYM    DATA     BIT       IE_ET2
      000000D5H   SFRSYM    DATA     BYTE      P1SKIP
      000000E8H   SFRSYM    DATA     BYTE      ADC0CN0
      000000A8H   SFRSYM    DATA     BIT       IE_EX0
      000000B2H   SFRSYM    DATA     BYTE      ADC0CN1
      000000D8H.6 SFRSYM    DATA     BIT       PCA0CN0_CR
      000000A8H.2 SFRSYM    DATA     BIT       IE_EX1
      00000098H.7 SFRSYM    DATA     BIT       SCON0_SMODE
      000000B5H   SFRSYM    DATA     BYTE      DEVICEID
      000000A9H   SFRSYM    DATA     BYTE      CLKSEL
      000000F8H   SFRSYM    DATA     BIT       SPI0CN0_SPIEN
      000000F0H   SFRSYM    DATA     BYTE      B
      000000BEH   SFRSYM    DATA     BYTE      ADC0H
      000000D2H   SFRSYM    DATA     BYTE      CRC0AUTO
      000000E8H.6 SFRSYM    DATA     BIT       ADC0CN0_ADBMEN
      000000CAH   SFRSYM    DATA     WORD      TMR2RL
      000000BDH   SFRSYM    DATA     BYTE      ADC0L
LX51 LINKER/LOCATER V4.66.30.0                                                        04/06/2017  12:39:39  PAGE 32


      00000092H   SFRSYM    DATA     WORD      TMR3RL
      000000D8H   SFRSYM    DATA     BYTE      PCA0CN0
      000000E0H   SFRSYM    DATA     BYTE      ACC
      000000FBH   SFRSYM    DATA     WORD      PCA0CP0
      000000E9H   SFRSYM    DATA     WORD      PCA0CP1
      000000EBH   SFRSYM    DATA     WORD      PCA0CP2
      000000CEH   SFRSYM    DATA     BYTE      CRC0CN0
      0000008CH   SFRSYM    DATA     BYTE      TH0
      000000B8H.4 SFRSYM    DATA     BIT       IP_PS0
      0000008DH   SFRSYM    DATA     BYTE      TH1
      000000FAH   SFRSYM    DATA     BYTE      PCA0H
      000000B8H.1 SFRSYM    DATA     BIT       IP_PT0
      000000B8H.3 SFRSYM    DATA     BIT       IP_PT1
      000000C0H.2 SFRSYM    DATA     BIT       SMB0CN0_ARBLOST
      000000B8H.5 SFRSYM    DATA     BIT       IP_PT2
      0000008AH   SFRSYM    DATA     BYTE      TL0
      000000F8H.1 SFRSYM    DATA     BIT       SPI0CN0_TXBMT
      000000D0H.5 SFRSYM    DATA     BIT       PSW_F0
      000000A8H.6 SFRSYM    DATA     BIT       IE_ESPI0
      0000008BH   SFRSYM    DATA     BYTE      TL1
      000000F9H   SFRSYM    DATA     BYTE      PCA0L
      000000C0H   SFRSYM    DATA     BIT       SMB0CN0_SI
      000000D0H.1 SFRSYM    DATA     BIT       PSW_F1
      00000080H   SFRSYM    DATA     BIT       P0_B0
      000000B8H   SFRSYM    DATA     BIT       IP_PX0
      00000090H   SFRSYM    DATA     BIT       P1_B0
      00000080H.1 SFRSYM    DATA     BIT       P0_B1
      000000B8H.2 SFRSYM    DATA     BIT       IP_PX1
      0000009BH   SFRSYM    DATA     BYTE      CMP0CN0
      00000088H.1 SFRSYM    DATA     BIT       TCON_IE0
      000000A0H   SFRSYM    DATA     BIT       P2_B0
      00000090H.1 SFRSYM    DATA     BIT       P1_B1
      00000080H.2 SFRSYM    DATA     BIT       P0_B2
      000000BFH   SFRSYM    DATA     BYTE      CMP1CN0
      00000088H.3 SFRSYM    DATA     BIT       TCON_IE1
      000000A0H.1 SFRSYM    DATA     BIT       P2_B1
      00000090H.2 SFRSYM    DATA     BIT       P1_B2
      00000080H.3 SFRSYM    DATA     BIT       P0_B3
      000000C0H   SFRSYM    DATA     BYTE      SMB0CN0
      00000090H.3 SFRSYM    DATA     BIT       P1_B3
      00000080H.4 SFRSYM    DATA     BIT       P0_B4
      00000090H.4 SFRSYM    DATA     BIT       P1_B4
      00000080H.5 SFRSYM    DATA     BIT       P0_B5
      00000090H.5 SFRSYM    DATA     BIT       P1_B5
      00000080H.6 SFRSYM    DATA     BIT       P0_B6
      00000090H.6 SFRSYM    DATA     BIT       P1_B6
      00000080H.7 SFRSYM    DATA     BIT       P0_B7
      00000090H.7 SFRSYM    DATA     BIT       P1_B7
      00000083H   SFRSYM    DATA     BYTE      DPH
      000000C4H   SFRSYM    DATA     BYTE      ADC0GTH
      000000C8H.7 SFRSYM    DATA     BIT       TMR2CN0_TF2H
      000000C8H.3 SFRSYM    DATA     BIT       TMR2CN0_T2SPLIT
      000000D0H.6 SFRSYM    DATA     BIT       PSW_AC
      000000F8H   SFRSYM    DATA     BYTE      SPI0CN0
      000000C7H   SFRSYM    DATA     BYTE      HFO0CAL
      00000080H   SFRSYM    DATA     BIT       RCK
      00000088H.5 SFRSYM    DATA     BIT       TCON_TF0
      00000098H   SFRSYM    DATA     BIT       SCON0_RI
      00000082H   SFRSYM    DATA     BYTE      DPL
      00000080H.1 SFRSYM    DATA     BIT       SCK
      00000088H.7 SFRSYM    DATA     BIT       TCON_TF1
      00000099H   SFRSYM    DATA     BYTE      SBUF0
LX51 LINKER/LOCATER V4.66.30.0                                                        04/06/2017  12:39:39  PAGE 33


      00000087H   SFRSYM    DATA     BYTE      PCON0
      000000C3H   SFRSYM    DATA     BYTE      ADC0GTL
      000000C8H.6 SFRSYM    DATA     BIT       TMR2CN0_TF2L
      00000098H.1 SFRSYM    DATA     BIT       SCON0_TI
      000000E8H   SFRSYM    DATA     BIT       ADC0CN0_ADCM0
      000000C6H   SFRSYM    DATA     BYTE      ADC0LTH
      00000088H   SFRSYM    DATA     BIT       TCON_IT0
      000000E8H.1 SFRSYM    DATA     BIT       ADC0CN0_ADCM1
      000000EFH   SFRSYM    DATA     BYTE      RSTSRC
      000000FDH   SFRSYM    DATA     BYTE      P0MAT
      000000DEH   SFRSYM    DATA     BYTE      CRC0DAT
      00000088H.2 SFRSYM    DATA     BIT       TCON_IT1
      000000E8H.2 SFRSYM    DATA     BIT       ADC0CN0_ADCM2
      00000098H   SFRSYM    DATA     BYTE      SCON0
      000000F6H   SFRSYM    DATA     BYTE      PRTDRV
      000000EDH   SFRSYM    DATA     BYTE      P1MAT
      000000E8H.3 SFRSYM    DATA     BIT       ADC0CN0_ADWINT
      000000E8H.4 SFRSYM    DATA     BIT       ADC0CN0_ADBUSY
      000000D6H   SFRSYM    DATA     BYTE      SMB0ADM
      000000C5H   SFRSYM    DATA     BYTE      ADC0LTL
      000000F8H.5 SFRSYM    DATA     BIT       SPI0CN0_MODF
      000000B8H.6 SFRSYM    DATA     BIT       IP_PSPI0
      0000009CH   SFRSYM    DATA     BYTE      PCA0CLR
      000000C8H   SFRSYM    DATA     BYTE      TMR2CN0
      00000091H   SFRSYM    DATA     BYTE      TMR3CN0
      000000A0H   SFRSYM    DATA     BIT       SER
      000000D7H   SFRSYM    DATA     BYTE      SMB0ADR
      00000088H.4 SFRSYM    DATA     BIT       TCON_TR0
      000000C8H.4 SFRSYM    DATA     BIT       TMR2CN0_TF2CEN
      00000088H.6 SFRSYM    DATA     BIT       TCON_TR1
      000000C2H   SFRSYM    DATA     BYTE      SMB0DAT
      000000CDH   SFRSYM    DATA     BYTE      TMR2H
      000000A1H   SFRSYM    DATA     BYTE      SPI0CFG
      00000095H   SFRSYM    DATA     BYTE      TMR3H
      000000D3H   SFRSYM    DATA     BYTE      CRC0CNT
      00000096H   SFRSYM    DATA     BYTE      PCA0POL
      000000CCH   SFRSYM    DATA     BYTE      TMR2L
      000000F8H.7 SFRSYM    DATA     BIT       SPI0CN0_SPIF
      00000094H   SFRSYM    DATA     BYTE      TMR3L
      000000DFH   SFRSYM    DATA     BYTE      ADC0PWR
      000000A8H.7 SFRSYM    DATA     BIT       IE_EA
      000000C8H.5 SFRSYM    DATA     BIT       TMR2CN0_TF2LEN
      000000F8H.6 SFRSYM    DATA     BIT       SPI0CN0_WCOL
      000000F8H.2 SFRSYM    DATA     BIT       SPI0CN0_NSSMD0
      000000D0H.7 SFRSYM    DATA     BIT       PSW_CY
      000000A3H   SFRSYM    DATA     BYTE      SPI0DAT
      000000F8H.3 SFRSYM    DATA     BIT       SPI0CN0_NSSMD1
      000000BDH   SFRSYM    DATA     WORD      ADC0
      000000D0H   SFRSYM    DATA     BYTE      PSW
      000000F7H   SFRSYM    DATA     BYTE      PCA0PWM
      000000B6H   SFRSYM    DATA     BYTE      REVID
      000000B7H   SFRSYM    DATA     BYTE      FLKEY
      000000B3H   SFRSYM    DATA     BYTE      ADC0AC

      01001283H   BLOCK     CODE     ---       LVL=0
      01001283H   LINE      CODE     ---       #28
      010012A0H   LINE      CODE     ---       #30
      010012A3H   LINE      CODE     ---       #31
      010012A6H   LINE      CODE     ---       #32
      ---         BLOCKEND  ---      ---       LVL=0

      01000052H   BLOCK     CODE     ---       LVL=0
LX51 LINKER/LOCATER V4.66.30.0                                                        04/06/2017  12:39:39  PAGE 34


      01000052H   LINE      CODE     ---       #44
      01000052H   LINE      CODE     ---       #47
      ---         BLOCKEND  ---      ---       LVL=0

      010011D9H   BLOCK     CODE     ---       LVL=0
      010011F6H   BLOCK     CODE     NEAR LAB  LVL=1
      00000017H   SYMBOL    DATA     BYTE      i
      ---         BLOCKEND  ---      ---       LVL=1
      010011D9H   LINE      CODE     ---       #58
      010011F6H   LINE      CODE     ---       #61
      010011F8H   LINE      CODE     ---       #62
      010011FBH   LINE      CODE     ---       #63
      010011FEH   LINE      CODE     ---       #64
      01001201H   LINE      CODE     ---       #65
      01001204H   LINE      CODE     ---       #66
      0100120BH   LINE      CODE     ---       #67
      0100120BH   LINE      CODE     ---       #68
      0100120EH   LINE      CODE     ---       #69
      01001211H   LINE      CODE     ---       #70
      01001211H   LINE      CODE     ---       #71
      01001214H   LINE      CODE     ---       #72
      ---         BLOCKEND  ---      ---       LVL=0

      ---         MODULE    ---      ---       ?C_STARTUP
      01000000H   PUBLIC    CODE     NEAR LAB  ?C_STARTUP
      000000E0H   SFRSYM    DATA     BYTE      ACC
      000000F0H   SFRSYM    DATA     BYTE      B
      00000083H   SFRSYM    DATA     BYTE      DPH
      00000082H   SFRSYM    DATA     BYTE      DPL
      000000A0H   SFRSYM    DATA     BYTE      PPAGE_SFR
      00000081H   SFRSYM    DATA     BYTE      SP
      00000000H   SYMBOL    NUMBER   ---       IBPSTACK
      00000100H   SYMBOL    NUMBER   ---       IBPSTACKTOP
      00000080H   SYMBOL    NUMBER   ---       IDATALEN
      01001029H   SYMBOL    CODE     NEAR LAB  IDATALOOP
      00000000H   SYMBOL    NUMBER   ---       PBPSTACK
      00000100H   SYMBOL    NUMBER   ---       PBPSTACKTOP
      00000000H   SYMBOL    NUMBER   ---       PDATALEN
      00000000H   SYMBOL    NUMBER   ---       PDATASTART
      00000000H   SYMBOL    NUMBER   ---       PPAGE
      00000000H   SYMBOL    NUMBER   ---       PPAGEENABLE
      01001026H   SYMBOL    CODE     NEAR LAB  STARTUP1
      00000000H   SYMBOL    NUMBER   ---       XBPSTACK
      00010000H   SYMBOL    NUMBER   ---       XBPSTACKTOP
      00000000H   SYMBOL    NUMBER   ---       XDATALEN
      00000000H   SYMBOL    NUMBER   ---       XDATASTART

      01000000H   BLOCK     CODE     NEAR LAB  LVL=0
      01000000H   LINE      CODE     ---       #126
      ---         BLOCKEND  ---      ---       LVL=0

      01001026H   BLOCK     CODE     NEAR LAB  LVL=0
      01001026H   LINE      CODE     ---       #138
      01001028H   LINE      CODE     ---       #139
      01001029H   LINE      CODE     ---       #140
      0100102AH   LINE      CODE     ---       #141
      0100102CH   LINE      CODE     ---       #190
      0100102FH   LINE      CODE     ---       #201
      ---         BLOCKEND  ---      ---       LVL=0

      ---         MODULE    ---      ---       KEY
      010017F9H   PUBLIC    CODE     ---       keyInit
LX51 LINKER/LOCATER V4.66.30.0                                                        04/06/2017  12:39:39  PAGE 35


      000000A2H   SFRSYM    DATA     BYTE      SPI0CKR
      00000080H   SFRSYM    DATA     BYTE      P0
      000000D0H.2 SFRSYM    DATA     BIT       PSW_OV
      00000090H   SFRSYM    DATA     BYTE      P1
      00000097H   SFRSYM    DATA     BYTE      WDTCN
      000000A0H   SFRSYM    DATA     BYTE      P2
      000000BCH   SFRSYM    DATA     BYTE      ADC0CF
      000000C8H   SFRSYM    DATA     BIT       TMR2CN0_T2XCLK
      000000C0H.7 SFRSYM    DATA     BIT       SMB0CN0_MASTER
      000000F9H   SFRSYM    DATA     WORD      PCA0
      000000E6H   SFRSYM    DATA     BYTE      EIE1
      000000C0H.1 SFRSYM    DATA     BIT       SMB0CN0_ACK
      0000008FH   SFRSYM    DATA     BYTE      PSCTL
      000000E4H   SFRSYM    DATA     BYTE      IT01CF
      000000C0H.6 SFRSYM    DATA     BIT       SMB0CN0_TXMODE
      000000ADH   SFRSYM    DATA     BYTE      DERIVID
      000000A4H   SFRSYM    DATA     BYTE      P0MDOUT
      000000A5H   SFRSYM    DATA     BYTE      P1MDOUT
      000000E8H.5 SFRSYM    DATA     BIT       ADC0CN0_ADINT
      000000CBH   SFRSYM    DATA     BYTE      TMR2RLH
      000000A6H   SFRSYM    DATA     BYTE      P2MDOUT
      000000A8H   SFRSYM    DATA     BYTE      IE
      00000093H   SFRSYM    DATA     BYTE      TMR3RLH
      000000F3H   SFRSYM    DATA     BYTE      EIP1
      00000098H.2 SFRSYM    DATA     BIT       SCON0_RB8
      000000CAH   SFRSYM    DATA     BYTE      TMR2RLL
      000000FCH   SFRSYM    DATA     BYTE      PCA0CPH0
      00000092H   SFRSYM    DATA     BYTE      TMR3RLL
      000000EAH   SFRSYM    DATA     BYTE      PCA0CPH1
      00000098H.3 SFRSYM    DATA     BIT       SCON0_TB8
      000000F0H   SFRSYM    DATA     BIT       B_B0
      00000082H   SFRSYM    DATA     WORD      DP
      000000ECH   SFRSYM    DATA     BYTE      PCA0CPH2
      000000F0H.1 SFRSYM    DATA     BIT       B_B1
      000000C3H   SFRSYM    DATA     WORD      ADC0GT
      000000F0H.2 SFRSYM    DATA     BIT       B_B2
      000000FBH   SFRSYM    DATA     BYTE      PCA0CPL0
      000000F0H.3 SFRSYM    DATA     BIT       B_B3
      000000D9H   SFRSYM    DATA     BYTE      PCA0MD
      000000DAH   SFRSYM    DATA     BYTE      PCA0CPM0
      000000E9H   SFRSYM    DATA     BYTE      PCA0CPL1
      000000F0H.4 SFRSYM    DATA     BIT       B_B4
      000000DBH   SFRSYM    DATA     BYTE      PCA0CPM1
      000000EBH   SFRSYM    DATA     BYTE      PCA0CPL2
      000000F0H.5 SFRSYM    DATA     BIT       B_B5
      000000DCH   SFRSYM    DATA     BYTE      PCA0CPM2
      000000B8H   SFRSYM    DATA     BYTE      IP
      000000B9H   SFRSYM    DATA     BYTE      ADC0TK
      000000F0H.6 SFRSYM    DATA     BIT       B_B6
      000000C5H   SFRSYM    DATA     WORD      ADC0LT
      00000090H   SFRSYM    DATA     BIT       KEY1
      00000098H.5 SFRSYM    DATA     BIT       SCON0_MCE
      000000F0H.7 SFRSYM    DATA     BIT       B_B7
      00000080H.3 SFRSYM    DATA     BIT       KEY2
      00000080H.2 SFRSYM    DATA     BIT       KEY3
      000000E1H   SFRSYM    DATA     BYTE      XBR0
      000000C1H   SFRSYM    DATA     BYTE      SMB0CF
      00000090H.5 SFRSYM    DATA     BIT       KEY4
      000000E2H   SFRSYM    DATA     BYTE      XBR1
      000000C0H.5 SFRSYM    DATA     BIT       SMB0CN0_STA
      000000E3H   SFRSYM    DATA     BYTE      XBR2
      000000BBH   SFRSYM    DATA     BYTE      ADC0MX
LX51 LINKER/LOCATER V4.66.30.0                                                        04/06/2017  12:39:39  PAGE 36


      000000E0H   SFRSYM    DATA     BIT       ACC_ACC0
      000000D1H   SFRSYM    DATA     BYTE      REF0CN
      0000008EH   SFRSYM    DATA     BYTE      CKCON0
      000000E0H.1 SFRSYM    DATA     BIT       ACC_ACC1
      000000C9H   SFRSYM    DATA     BYTE      REG0CN
      000000DDH   SFRSYM    DATA     BYTE      CRC0IN
      000000C8H.2 SFRSYM    DATA     BIT       TMR2CN0_TR2
      000000E0H.2 SFRSYM    DATA     BIT       ACC_ACC2
      000000E0H.3 SFRSYM    DATA     BIT       ACC_ACC3
      00000081H   SFRSYM    DATA     BYTE      SP
      0000009DH   SFRSYM    DATA     BYTE      CMP0MD
      000000E0H.4 SFRSYM    DATA     BIT       ACC_ACC4
      000000B1H   SFRSYM    DATA     BYTE      LFO0CN
      000000ABH   SFRSYM    DATA     BYTE      CMP1MD
      000000D8H   SFRSYM    DATA     BIT       PCA0CN0_CCF0
      000000E0H.5 SFRSYM    DATA     BIT       ACC_ACC5
      000000D8H.1 SFRSYM    DATA     BIT       PCA0CN0_CCF1
      000000E0H.6 SFRSYM    DATA     BIT       ACC_ACC6
      000000CCH   SFRSYM    DATA     WORD      TMR2
      000000D8H.2 SFRSYM    DATA     BIT       PCA0CN0_CCF2
      000000E0H.7 SFRSYM    DATA     BIT       ACC_ACC7
      00000094H   SFRSYM    DATA     WORD      TMR3
      000000C0H.3 SFRSYM    DATA     BIT       SMB0CN0_ACKRQ
      000000FFH   SFRSYM    DATA     BYTE      VDM0CN
      000000F1H   SFRSYM    DATA     BYTE      P0MDIN
      00000098H.4 SFRSYM    DATA     BIT       SCON0_REN
      000000ACH   SFRSYM    DATA     BYTE      SMB0TC
      000000F2H   SFRSYM    DATA     BYTE      P1MDIN
      000000C0H.4 SFRSYM    DATA     BIT       SMB0CN0_STO
      000000FEH   SFRSYM    DATA     BYTE      P0MASK
      000000EEH   SFRSYM    DATA     BYTE      P1MASK
      000000D0H.3 SFRSYM    DATA     BIT       PSW_RS0
      000000D8H.7 SFRSYM    DATA     BIT       PCA0CN0_CF
      0000009EH   SFRSYM    DATA     BYTE      PCA0CENT
      000000F8H.4 SFRSYM    DATA     BIT       SPI0CN0_RXOVRN
      000000D0H.4 SFRSYM    DATA     BIT       PSW_RS1
      000000E8H.7 SFRSYM    DATA     BIT       ADC0CN0_ADEN
      00000089H   SFRSYM    DATA     BYTE      TMOD
      00000088H   SFRSYM    DATA     BYTE      TCON
      000000CFH   SFRSYM    DATA     BYTE      CRC0FLIP
      000000D0H   SFRSYM    DATA     BIT       PSW_PARITY
      000000A8H.4 SFRSYM    DATA     BIT       IE_ES0
      0000009FH   SFRSYM    DATA     BYTE      CMP0MX
      000000A8H.1 SFRSYM    DATA     BIT       IE_ET0
      000000AAH   SFRSYM    DATA     BYTE      CMP1MX
      000000A8H.3 SFRSYM    DATA     BIT       IE_ET1
      000000D4H   SFRSYM    DATA     BYTE      P0SKIP
      000000A8H.5 SFRSYM    DATA     BIT       IE_ET2
      000000D5H   SFRSYM    DATA     BYTE      P1SKIP
      000000E8H   SFRSYM    DATA     BYTE      ADC0CN0
      000000A8H   SFRSYM    DATA     BIT       IE_EX0
      000000B2H   SFRSYM    DATA     BYTE      ADC0CN1
      000000D8H.6 SFRSYM    DATA     BIT       PCA0CN0_CR
      000000A8H.2 SFRSYM    DATA     BIT       IE_EX1
      00000098H.7 SFRSYM    DATA     BIT       SCON0_SMODE
      000000B5H   SFRSYM    DATA     BYTE      DEVICEID
      000000A9H   SFRSYM    DATA     BYTE      CLKSEL
      000000F8H   SFRSYM    DATA     BIT       SPI0CN0_SPIEN
      000000F0H   SFRSYM    DATA     BYTE      B
      000000BEH   SFRSYM    DATA     BYTE      ADC0H
      000000D2H   SFRSYM    DATA     BYTE      CRC0AUTO
      000000E8H.6 SFRSYM    DATA     BIT       ADC0CN0_ADBMEN
LX51 LINKER/LOCATER V4.66.30.0                                                        04/06/2017  12:39:39  PAGE 37


      000000CAH   SFRSYM    DATA     WORD      TMR2RL
      000000BDH   SFRSYM    DATA     BYTE      ADC0L
      00000092H   SFRSYM    DATA     WORD      TMR3RL
      000000D8H   SFRSYM    DATA     BYTE      PCA0CN0
      000000E0H   SFRSYM    DATA     BYTE      ACC
      000000FBH   SFRSYM    DATA     WORD      PCA0CP0
      000000E9H   SFRSYM    DATA     WORD      PCA0CP1
      000000EBH   SFRSYM    DATA     WORD      PCA0CP2
      000000CEH   SFRSYM    DATA     BYTE      CRC0CN0
      0000008CH   SFRSYM    DATA     BYTE      TH0
      000000B8H.4 SFRSYM    DATA     BIT       IP_PS0
      0000008DH   SFRSYM    DATA     BYTE      TH1
      000000FAH   SFRSYM    DATA     BYTE      PCA0H
      000000B8H.1 SFRSYM    DATA     BIT       IP_PT0
      000000B8H.3 SFRSYM    DATA     BIT       IP_PT1
      000000C0H.2 SFRSYM    DATA     BIT       SMB0CN0_ARBLOST
      000000B8H.5 SFRSYM    DATA     BIT       IP_PT2
      0000008AH   SFRSYM    DATA     BYTE      TL0
      000000F8H.1 SFRSYM    DATA     BIT       SPI0CN0_TXBMT
      000000D0H.5 SFRSYM    DATA     BIT       PSW_F0
      000000A8H.6 SFRSYM    DATA     BIT       IE_ESPI0
      0000008BH   SFRSYM    DATA     BYTE      TL1
      000000F9H   SFRSYM    DATA     BYTE      PCA0L
      000000C0H   SFRSYM    DATA     BIT       SMB0CN0_SI
      000000D0H.1 SFRSYM    DATA     BIT       PSW_F1
      00000080H   SFRSYM    DATA     BIT       P0_B0
      000000B8H   SFRSYM    DATA     BIT       IP_PX0
      00000090H   SFRSYM    DATA     BIT       P1_B0
      00000080H.1 SFRSYM    DATA     BIT       P0_B1
      000000B8H.2 SFRSYM    DATA     BIT       IP_PX1
      0000009BH   SFRSYM    DATA     BYTE      CMP0CN0
      00000088H.1 SFRSYM    DATA     BIT       TCON_IE0
      000000A0H   SFRSYM    DATA     BIT       P2_B0
      00000090H.1 SFRSYM    DATA     BIT       P1_B1
      00000080H.2 SFRSYM    DATA     BIT       P0_B2
      000000BFH   SFRSYM    DATA     BYTE      CMP1CN0
      00000088H.3 SFRSYM    DATA     BIT       TCON_IE1
      000000A0H.1 SFRSYM    DATA     BIT       P2_B1
      00000090H.2 SFRSYM    DATA     BIT       P1_B2
      00000080H.3 SFRSYM    DATA     BIT       P0_B3
      000000C0H   SFRSYM    DATA     BYTE      SMB0CN0
      00000090H.3 SFRSYM    DATA     BIT       P1_B3
      00000080H.4 SFRSYM    DATA     BIT       P0_B4
      00000090H.4 SFRSYM    DATA     BIT       P1_B4
      00000080H.5 SFRSYM    DATA     BIT       P0_B5
      00000090H.5 SFRSYM    DATA     BIT       P1_B5
      00000080H.6 SFRSYM    DATA     BIT       P0_B6
      00000090H.6 SFRSYM    DATA     BIT       P1_B6
      00000080H.7 SFRSYM    DATA     BIT       P0_B7
      00000090H.7 SFRSYM    DATA     BIT       P1_B7
      00000083H   SFRSYM    DATA     BYTE      DPH
      000000C4H   SFRSYM    DATA     BYTE      ADC0GTH
      000000C8H.7 SFRSYM    DATA     BIT       TMR2CN0_TF2H
      000000C8H.3 SFRSYM    DATA     BIT       TMR2CN0_T2SPLIT
      000000D0H.6 SFRSYM    DATA     BIT       PSW_AC
      000000F8H   SFRSYM    DATA     BYTE      SPI0CN0
      000000C7H   SFRSYM    DATA     BYTE      HFO0CAL
      00000080H   SFRSYM    DATA     BIT       RCK
      00000088H.5 SFRSYM    DATA     BIT       TCON_TF0
      00000098H   SFRSYM    DATA     BIT       SCON0_RI
      00000082H   SFRSYM    DATA     BYTE      DPL
      00000080H.1 SFRSYM    DATA     BIT       SCK
LX51 LINKER/LOCATER V4.66.30.0                                                        04/06/2017  12:39:39  PAGE 38


      00000088H.7 SFRSYM    DATA     BIT       TCON_TF1
      00000099H   SFRSYM    DATA     BYTE      SBUF0
      00000087H   SFRSYM    DATA     BYTE      PCON0
      000000C3H   SFRSYM    DATA     BYTE      ADC0GTL
      000000C8H.6 SFRSYM    DATA     BIT       TMR2CN0_TF2L
      00000098H.1 SFRSYM    DATA     BIT       SCON0_TI
      000000E8H   SFRSYM    DATA     BIT       ADC0CN0_ADCM0
      000000C6H   SFRSYM    DATA     BYTE      ADC0LTH
      00000088H   SFRSYM    DATA     BIT       TCON_IT0
      000000E8H.1 SFRSYM    DATA     BIT       ADC0CN0_ADCM1
      000000EFH   SFRSYM    DATA     BYTE      RSTSRC
      000000FDH   SFRSYM    DATA     BYTE      P0MAT
      000000DEH   SFRSYM    DATA     BYTE      CRC0DAT
      00000088H.2 SFRSYM    DATA     BIT       TCON_IT1
      000000E8H.2 SFRSYM    DATA     BIT       ADC0CN0_ADCM2
      00000098H   SFRSYM    DATA     BYTE      SCON0
      000000F6H   SFRSYM    DATA     BYTE      PRTDRV
      000000EDH   SFRSYM    DATA     BYTE      P1MAT
      000000E8H.3 SFRSYM    DATA     BIT       ADC0CN0_ADWINT
      000000E8H.4 SFRSYM    DATA     BIT       ADC0CN0_ADBUSY
      000000D6H   SFRSYM    DATA     BYTE      SMB0ADM
      000000C5H   SFRSYM    DATA     BYTE      ADC0LTL
      000000F8H.5 SFRSYM    DATA     BIT       SPI0CN0_MODF
      000000B8H.6 SFRSYM    DATA     BIT       IP_PSPI0
      0000009CH   SFRSYM    DATA     BYTE      PCA0CLR
      000000C8H   SFRSYM    DATA     BYTE      TMR2CN0
      00000091H   SFRSYM    DATA     BYTE      TMR3CN0
      000000A0H   SFRSYM    DATA     BIT       SER
      000000D7H   SFRSYM    DATA     BYTE      SMB0ADR
      00000088H.4 SFRSYM    DATA     BIT       TCON_TR0
      000000C8H.4 SFRSYM    DATA     BIT       TMR2CN0_TF2CEN
      00000088H.6 SFRSYM    DATA     BIT       TCON_TR1
      000000C2H   SFRSYM    DATA     BYTE      SMB0DAT
      000000CDH   SFRSYM    DATA     BYTE      TMR2H
      000000A1H   SFRSYM    DATA     BYTE      SPI0CFG
      00000095H   SFRSYM    DATA     BYTE      TMR3H
      000000D3H   SFRSYM    DATA     BYTE      CRC0CNT
      00000096H   SFRSYM    DATA     BYTE      PCA0POL
      000000CCH   SFRSYM    DATA     BYTE      TMR2L
      000000F8H.7 SFRSYM    DATA     BIT       SPI0CN0_SPIF
      00000094H   SFRSYM    DATA     BYTE      TMR3L
      000000DFH   SFRSYM    DATA     BYTE      ADC0PWR
      000000A8H.7 SFRSYM    DATA     BIT       IE_EA
      000000C8H.5 SFRSYM    DATA     BIT       TMR2CN0_TF2LEN
      000000F8H.6 SFRSYM    DATA     BIT       SPI0CN0_WCOL
      000000F8H.2 SFRSYM    DATA     BIT       SPI0CN0_NSSMD0
      000000D0H.7 SFRSYM    DATA     BIT       PSW_CY
      000000A3H   SFRSYM    DATA     BYTE      SPI0DAT
      000000F8H.3 SFRSYM    DATA     BIT       SPI0CN0_NSSMD1
      000000BDH   SFRSYM    DATA     WORD      ADC0
      000000D0H   SFRSYM    DATA     BYTE      PSW
      000000F7H   SFRSYM    DATA     BYTE      PCA0PWM
      000000B6H   SFRSYM    DATA     BYTE      REVID
      000000B7H   SFRSYM    DATA     BYTE      FLKEY
      000000B3H   SFRSYM    DATA     BYTE      ADC0AC
      01000B78H   SYMBOL    CODE     ---       registerKeys
      0100158AH   SYMBOL    CODE     ---       key1_twice_press
      010015A8H   SYMBOL    CODE     ---       key2_twice_press
      010015C6H   SYMBOL    CODE     ---       key3_twice_press
      010015E4H   SYMBOL    CODE     ---       key4_twice_press
      010013D7H   SYMBOL    CODE     ---       key5_twice_press
      010016A6H   SYMBOL    CODE     ---       key1_long_press
LX51 LINKER/LOCATER V4.66.30.0                                                        04/06/2017  12:39:39  PAGE 39


      01001602H   SYMBOL    CODE     ---       key2_long_press
      01001712H   SYMBOL    CODE     ---       key1_short_press
      0100161EH   SYMBOL    CODE     ---       key3_long_press
      0100171DH   SYMBOL    CODE     ---       key2_short_press
      0100163AH   SYMBOL    CODE     ---       key4_long_press
      01001728H   SYMBOL    CODE     ---       key3_short_press
      01001180H   SYMBOL    CODE     ---       key5_long_press
      01001733H   SYMBOL    CODE     ---       key4_short_press
      010014C3H   SYMBOL    CODE     ---       key1_is_press
      0100149CH   SYMBOL    CODE     ---       key2_is_press
      01001475H   SYMBOL    CODE     ---       key3_is_press
      0100144EH   SYMBOL    CODE     ---       key4_is_press
      01001427H   SYMBOL    CODE     ---       key5_is_press
      010017EDH   SYMBOL    CODE     ---       key1_long_up_press
      010017F0H   SYMBOL    CODE     ---       key2_long_up_press
      010014EAH   SYMBOL    CODE     ---       key1_short_up_press
      010017F3H   SYMBOL    CODE     ---       key3_long_up_press
      0100150AH   SYMBOL    CODE     ---       key2_short_up_press
      010017F6H   SYMBOL    CODE     ---       key4_long_up_press
      0100152AH   SYMBOL    CODE     ---       key3_short_up_press
      0100154AH   SYMBOL    CODE     ---       key4_short_up_press
      010012C1H   SYMBOL    CODE     ---       key5_short_up_press

      01001427H   BLOCK     CODE     ---       LVL=0
      01001427H   LINE      CODE     ---       #14
      01001427H   LINE      CODE     ---       #15
      01001427H   LINE      CODE     ---       #16
      0100144BH   LINE      CODE     ---       #17
      0100144BH   LINE      CODE     ---       #18
      0100144CH   LINE      CODE     ---       #19
      0100144CH   LINE      CODE     ---       #20
      0100144DH   LINE      CODE     ---       #21
      ---         BLOCKEND  ---      ---       LVL=0

      0100144EH   BLOCK     CODE     ---       LVL=0
      0100144EH   LINE      CODE     ---       #22
      0100144EH   LINE      CODE     ---       #23
      0100144EH   LINE      CODE     ---       #24
      01001472H   LINE      CODE     ---       #25
      01001472H   LINE      CODE     ---       #26
      01001473H   LINE      CODE     ---       #27
      01001473H   LINE      CODE     ---       #28
      01001474H   LINE      CODE     ---       #29
      ---         BLOCKEND  ---      ---       LVL=0

      01001475H   BLOCK     CODE     ---       LVL=0
      01001475H   LINE      CODE     ---       #30
      01001475H   LINE      CODE     ---       #31
      01001475H   LINE      CODE     ---       #32
      01001499H   LINE      CODE     ---       #33
      01001499H   LINE      CODE     ---       #34
      0100149AH   LINE      CODE     ---       #35
      0100149AH   LINE      CODE     ---       #36
      0100149BH   LINE      CODE     ---       #37
      ---         BLOCKEND  ---      ---       LVL=0

      0100149CH   BLOCK     CODE     ---       LVL=0
      0100149CH   LINE      CODE     ---       #38
      0100149CH   LINE      CODE     ---       #39
      0100149CH   LINE      CODE     ---       #40
      010014C0H   LINE      CODE     ---       #41
      010014C0H   LINE      CODE     ---       #42
LX51 LINKER/LOCATER V4.66.30.0                                                        04/06/2017  12:39:39  PAGE 40


      010014C1H   LINE      CODE     ---       #43
      010014C1H   LINE      CODE     ---       #44
      010014C2H   LINE      CODE     ---       #45
      ---         BLOCKEND  ---      ---       LVL=0

      010014C3H   BLOCK     CODE     ---       LVL=0
      010014C3H   LINE      CODE     ---       #46
      010014C3H   LINE      CODE     ---       #47
      010014C3H   LINE      CODE     ---       #48
      010014E7H   LINE      CODE     ---       #49
      010014E7H   LINE      CODE     ---       #50
      010014E8H   LINE      CODE     ---       #51
      010014E8H   LINE      CODE     ---       #52
      010014E9H   LINE      CODE     ---       #53
      ---         BLOCKEND  ---      ---       LVL=0

      01001712H   BLOCK     CODE     ---       LVL=0
      01001712H   LINE      CODE     ---       #55
      01001712H   LINE      CODE     ---       #56
      01001712H   LINE      CODE     ---       #57
      01001717H   LINE      CODE     ---       #58
      01001717H   LINE      CODE     ---       #59
      0100171AH   LINE      CODE     ---       #61
      0100171AH   LINE      CODE     ---       #62
      0100171CH   LINE      CODE     ---       #63
      ---         BLOCKEND  ---      ---       LVL=0

      0100171DH   BLOCK     CODE     ---       LVL=0
      0100171DH   LINE      CODE     ---       #64
      0100171DH   LINE      CODE     ---       #65
      0100171DH   LINE      CODE     ---       #66
      01001722H   LINE      CODE     ---       #67
      01001722H   LINE      CODE     ---       #68
      01001725H   LINE      CODE     ---       #70
      01001725H   LINE      CODE     ---       #71
      01001727H   LINE      CODE     ---       #72
      ---         BLOCKEND  ---      ---       LVL=0

      01001728H   BLOCK     CODE     ---       LVL=0
      01001728H   LINE      CODE     ---       #73
      01001728H   LINE      CODE     ---       #74
      01001728H   LINE      CODE     ---       #75
      0100172DH   LINE      CODE     ---       #76
      0100172DH   LINE      CODE     ---       #77
      01001730H   LINE      CODE     ---       #79
      01001730H   LINE      CODE     ---       #80
      01001732H   LINE      CODE     ---       #81
      ---         BLOCKEND  ---      ---       LVL=0

      01001733H   BLOCK     CODE     ---       LVL=0
      01001733H   LINE      CODE     ---       #82
      01001733H   LINE      CODE     ---       #83
      01001733H   LINE      CODE     ---       #84
      01001738H   LINE      CODE     ---       #85
      01001738H   LINE      CODE     ---       #86
      0100173BH   LINE      CODE     ---       #88
      0100173BH   LINE      CODE     ---       #89
      0100173DH   LINE      CODE     ---       #90
      ---         BLOCKEND  ---      ---       LVL=0

      0100158AH   BLOCK     CODE     ---       LVL=0
      0100158AH   LINE      CODE     ---       #92
LX51 LINKER/LOCATER V4.66.30.0                                                        04/06/2017  12:39:39  PAGE 41


      0100158AH   LINE      CODE     ---       #93
      0100158AH   LINE      CODE     ---       #94
      01001592H   LINE      CODE     ---       #95
      01001592H   LINE      CODE     ---       #96
      01001596H   LINE      CODE     ---       #97
      01001596H   LINE      CODE     ---       #98
      01001599H   LINE      CODE     ---       #99
      0100159CH   LINE      CODE     ---       #100
      0100159CH   LINE      CODE     ---       #101
      010015A1H   LINE      CODE     ---       #102
      010015A1H   LINE      CODE     ---       #103
      010015A4H   LINE      CODE     ---       #104
      010015A7H   LINE      CODE     ---       #105
      010015A7H   LINE      CODE     ---       #106
      010015A7H   LINE      CODE     ---       #107
      ---         BLOCKEND  ---      ---       LVL=0

      010015A8H   BLOCK     CODE     ---       LVL=0
      010015A8H   LINE      CODE     ---       #108
      010015A8H   LINE      CODE     ---       #109
      010015A8H   LINE      CODE     ---       #110
      010015B0H   LINE      CODE     ---       #111
      010015B0H   LINE      CODE     ---       #112
      010015B4H   LINE      CODE     ---       #113
      010015B4H   LINE      CODE     ---       #114
      010015B7H   LINE      CODE     ---       #115
      010015BAH   LINE      CODE     ---       #116
      010015BAH   LINE      CODE     ---       #117
      010015BFH   LINE      CODE     ---       #118
      010015BFH   LINE      CODE     ---       #119
      010015C2H   LINE      CODE     ---       #120
      010015C5H   LINE      CODE     ---       #121
      010015C5H   LINE      CODE     ---       #122
      010015C5H   LINE      CODE     ---       #123
      ---         BLOCKEND  ---      ---       LVL=0

      010015C6H   BLOCK     CODE     ---       LVL=0
      010015C6H   LINE      CODE     ---       #124
      010015C6H   LINE      CODE     ---       #125
      010015C6H   LINE      CODE     ---       #126
      010015CEH   LINE      CODE     ---       #127
      010015CEH   LINE      CODE     ---       #128
      010015D2H   LINE      CODE     ---       #129
      010015D2H   LINE      CODE     ---       #130
      010015D5H   LINE      CODE     ---       #131
      010015D8H   LINE      CODE     ---       #132
      010015D8H   LINE      CODE     ---       #133
      010015DDH   LINE      CODE     ---       #134
      010015DDH   LINE      CODE     ---       #135
      010015E0H   LINE      CODE     ---       #136
      010015E3H   LINE      CODE     ---       #137
      010015E3H   LINE      CODE     ---       #138
      010015E3H   LINE      CODE     ---       #139
      ---         BLOCKEND  ---      ---       LVL=0

      010015E4H   BLOCK     CODE     ---       LVL=0
      010015E4H   LINE      CODE     ---       #140
      010015E4H   LINE      CODE     ---       #141
      010015E4H   LINE      CODE     ---       #142
      010015ECH   LINE      CODE     ---       #143
      010015ECH   LINE      CODE     ---       #144
      010015F0H   LINE      CODE     ---       #145
LX51 LINKER/LOCATER V4.66.30.0                                                        04/06/2017  12:39:39  PAGE 42


      010015F0H   LINE      CODE     ---       #146
      010015F3H   LINE      CODE     ---       #147
      010015F6H   LINE      CODE     ---       #148
      010015F6H   LINE      CODE     ---       #149
      010015FBH   LINE      CODE     ---       #150
      010015FBH   LINE      CODE     ---       #151
      010015FEH   LINE      CODE     ---       #152
      01001601H   LINE      CODE     ---       #153
      01001601H   LINE      CODE     ---       #154
      01001601H   LINE      CODE     ---       #155
      ---         BLOCKEND  ---      ---       LVL=0

      010013D7H   BLOCK     CODE     ---       LVL=0
      010013D7H   LINE      CODE     ---       #156
      010013D7H   LINE      CODE     ---       #157
      010013D7H   LINE      CODE     ---       #158
      010013DBH   LINE      CODE     ---       #159
      010013DBH   LINE      CODE     ---       #160
      010013DFH   LINE      CODE     ---       #161
      010013DFH   LINE      CODE     ---       #162
      010013E2H   LINE      CODE     ---       #163
      010013E5H   LINE      CODE     ---       #164
      010013E7H   LINE      CODE     ---       #165
      010013ECH   LINE      CODE     ---       #166
      010013ECH   LINE      CODE     ---       #167
      010013EFH   LINE      CODE     ---       #168
      010013F1H   LINE      CODE     ---       #169
      010013F3H   LINE      CODE     ---       #170
      010013F5H   LINE      CODE     ---       #171
      010013F7H   LINE      CODE     ---       #172
      010013FAH   LINE      CODE     ---       #173
      010013FAH   LINE      CODE     ---       #174
      010013FFH   LINE      CODE     ---       #175
      010013FFH   LINE      CODE     ---       #176
      ---         BLOCKEND  ---      ---       LVL=0

      010014EAH   BLOCK     CODE     ---       LVL=0
      010014EAH   LINE      CODE     ---       #177
      010014EAH   LINE      CODE     ---       #178
      010014EAH   LINE      CODE     ---       #179
      010014ECH   LINE      CODE     ---       #180
      010014F1H   LINE      CODE     ---       #181
      010014F1H   LINE      CODE     ---       #182
      010014F4H   LINE      CODE     ---       #183
      010014F5H   LINE      CODE     ---       #184
      010014FAH   LINE      CODE     ---       #185
      010014FAH   LINE      CODE     ---       #186
      010014FDH   LINE      CODE     ---       #187
      01001500H   LINE      CODE     ---       #188
      01001503H   LINE      CODE     ---       #189
      01001506H   LINE      CODE     ---       #190
      01001509H   LINE      CODE     ---       #191
      01001509H   LINE      CODE     ---       #192
      ---         BLOCKEND  ---      ---       LVL=0

      0100150AH   BLOCK     CODE     ---       LVL=0
      0100150AH   LINE      CODE     ---       #193
      0100150AH   LINE      CODE     ---       #194
      0100150AH   LINE      CODE     ---       #195
      0100150CH   LINE      CODE     ---       #196
      01001511H   LINE      CODE     ---       #197
      01001511H   LINE      CODE     ---       #198
LX51 LINKER/LOCATER V4.66.30.0                                                        04/06/2017  12:39:39  PAGE 43


      01001514H   LINE      CODE     ---       #199
      01001515H   LINE      CODE     ---       #200
      0100151AH   LINE      CODE     ---       #201
      0100151AH   LINE      CODE     ---       #202
      0100151DH   LINE      CODE     ---       #203
      01001520H   LINE      CODE     ---       #204
      01001523H   LINE      CODE     ---       #205
      01001526H   LINE      CODE     ---       #206
      01001529H   LINE      CODE     ---       #207
      01001529H   LINE      CODE     ---       #208
      ---         BLOCKEND  ---      ---       LVL=0

      0100152AH   BLOCK     CODE     ---       LVL=0
      0100152AH   LINE      CODE     ---       #209
      0100152AH   LINE      CODE     ---       #210
      0100152AH   LINE      CODE     ---       #211
      0100152CH   LINE      CODE     ---       #212
      01001531H   LINE      CODE     ---       #213
      01001531H   LINE      CODE     ---       #214
      01001534H   LINE      CODE     ---       #215
      01001535H   LINE      CODE     ---       #216
      0100153AH   LINE      CODE     ---       #217
      0100153AH   LINE      CODE     ---       #218
      0100153DH   LINE      CODE     ---       #219
      01001540H   LINE      CODE     ---       #220
      01001543H   LINE      CODE     ---       #221
      01001546H   LINE      CODE     ---       #222
      01001549H   LINE      CODE     ---       #223
      01001549H   LINE      CODE     ---       #224
      ---         BLOCKEND  ---      ---       LVL=0

      0100154AH   BLOCK     CODE     ---       LVL=0
      0100154AH   LINE      CODE     ---       #225
      0100154AH   LINE      CODE     ---       #226
      0100154AH   LINE      CODE     ---       #227
      0100154CH   LINE      CODE     ---       #228
      01001551H   LINE      CODE     ---       #229
      01001551H   LINE      CODE     ---       #230
      01001554H   LINE      CODE     ---       #231
      01001555H   LINE      CODE     ---       #232
      0100155AH   LINE      CODE     ---       #233
      0100155AH   LINE      CODE     ---       #234
      0100155DH   LINE      CODE     ---       #235
      01001560H   LINE      CODE     ---       #236
      01001563H   LINE      CODE     ---       #237
      01001566H   LINE      CODE     ---       #238
      01001569H   LINE      CODE     ---       #239
      01001569H   LINE      CODE     ---       #240
      ---         BLOCKEND  ---      ---       LVL=0

      010012C1H   BLOCK     CODE     ---       LVL=0
      010012C1H   BLOCK     CODE     NEAR LAB  LVL=1
      0000000DH   SYMBOL    DATA     BYTE      temp
      ---         BLOCKEND  ---      ---       LVL=1
      010012C1H   LINE      CODE     ---       #241
      010012C1H   LINE      CODE     ---       #242
      010012C1H   LINE      CODE     ---       #243
      010012C4H   LINE      CODE     ---       #244
      010012CAH   LINE      CODE     ---       #245
      010012CAH   LINE      CODE     ---       #246
      010012CCH   LINE      CODE     ---       #247
      010012CFH   LINE      CODE     ---       #248
LX51 LINKER/LOCATER V4.66.30.0                                                        04/06/2017  12:39:39  PAGE 44


      010012D4H   LINE      CODE     ---       #249
      010012D4H   LINE      CODE     ---       #250
      010012D7H   LINE      CODE     ---       #251
      010012D7H   LINE      CODE     ---       #253
      010012D7H   LINE      CODE     ---       #254
      010012DAH   LINE      CODE     ---       #255
      010012F3H   LINE      CODE     ---       #259
      010012F8H   LINE      CODE     ---       #260
      010012F8H   LINE      CODE     ---       #261
      010012F8H   LINE      CODE     ---       #262
      ---         BLOCKEND  ---      ---       LVL=0

      010016A6H   BLOCK     CODE     ---       LVL=0
      010016A6H   LINE      CODE     ---       #263
      010016A6H   LINE      CODE     ---       #264
      010016A6H   LINE      CODE     ---       #265
      010016AAH   LINE      CODE     ---       #266
      010016AAH   LINE      CODE     ---       #267
      010016ADH   LINE      CODE     ---       #268
      010016AEH   LINE      CODE     ---       #269
      010016B3H   LINE      CODE     ---       #270
      010016B3H   LINE      CODE     ---       #272
      010016B6H   LINE      CODE     ---       #273
      010016B9H   LINE      CODE     ---       #274
      010016B9H   LINE      CODE     ---       #275
      ---         BLOCKEND  ---      ---       LVL=0

      01001602H   BLOCK     CODE     ---       LVL=0
      01001602H   LINE      CODE     ---       #276
      01001602H   LINE      CODE     ---       #277
      01001602H   LINE      CODE     ---       #278
      0100160EH   LINE      CODE     ---       #280
      0100160EH   LINE      CODE     ---       #281
      01001611H   LINE      CODE     ---       #282
      01001612H   LINE      CODE     ---       #283
      01001617H   LINE      CODE     ---       #284
      01001617H   LINE      CODE     ---       #286
      0100161AH   LINE      CODE     ---       #287
      0100161DH   LINE      CODE     ---       #288
      0100161DH   LINE      CODE     ---       #289
      ---         BLOCKEND  ---      ---       LVL=0

      0100161EH   BLOCK     CODE     ---       LVL=0
      0100161EH   LINE      CODE     ---       #290
      0100161EH   LINE      CODE     ---       #291
      0100161EH   LINE      CODE     ---       #292
      0100162AH   LINE      CODE     ---       #294
      0100162AH   LINE      CODE     ---       #295
      0100162DH   LINE      CODE     ---       #296
      0100162EH   LINE      CODE     ---       #297
      01001633H   LINE      CODE     ---       #298
      01001633H   LINE      CODE     ---       #300
      01001636H   LINE      CODE     ---       #301
      01001639H   LINE      CODE     ---       #302
      01001639H   LINE      CODE     ---       #303
      ---         BLOCKEND  ---      ---       LVL=0

      0100163AH   BLOCK     CODE     ---       LVL=0
      0100163AH   LINE      CODE     ---       #304
      0100163AH   LINE      CODE     ---       #305
      0100163AH   LINE      CODE     ---       #306
      01001646H   LINE      CODE     ---       #308
LX51 LINKER/LOCATER V4.66.30.0                                                        04/06/2017  12:39:39  PAGE 45


      01001646H   LINE      CODE     ---       #309
      01001649H   LINE      CODE     ---       #310
      0100164AH   LINE      CODE     ---       #311
      0100164FH   LINE      CODE     ---       #312
      0100164FH   LINE      CODE     ---       #314
      01001652H   LINE      CODE     ---       #315
      01001655H   LINE      CODE     ---       #316
      01001655H   LINE      CODE     ---       #317
      ---         BLOCKEND  ---      ---       LVL=0

      01001180H   BLOCK     CODE     ---       LVL=0
      01001180H   BLOCK     CODE     NEAR LAB  LVL=1
      0000000DH   SYMBOL    DATA     BYTE      temp
      ---         BLOCKEND  ---      ---       LVL=1
      01001180H   LINE      CODE     ---       #318
      01001180H   LINE      CODE     ---       #319
      01001180H   LINE      CODE     ---       #320
      01001183H   LINE      CODE     ---       #321
      01001187H   LINE      CODE     ---       #322
      01001187H   LINE      CODE     ---       #323
      0100118AH   LINE      CODE     ---       #324
      0100118DH   LINE      CODE     ---       #325
      01001190H   LINE      CODE     ---       #326
      01001193H   LINE      CODE     ---       #327
      01001196H   LINE      CODE     ---       #328
      0100119BH   LINE      CODE     ---       #329
      0100119EH   LINE      CODE     ---       #330
      010011A1H   LINE      CODE     ---       #331
      010011A4H   LINE      CODE     ---       #332
      010011A4H   LINE      CODE     ---       #333
      010011AAH   LINE      CODE     ---       #334
      010011AAH   LINE      CODE     ---       #335
      010011ACH   LINE      CODE     ---       #336
      010011AFH   LINE      CODE     ---       #337
      010011B4H   LINE      CODE     ---       #338
      010011B4H   LINE      CODE     ---       #339
      010011B7H   LINE      CODE     ---       #340
      010011B7H   LINE      CODE     ---       #342
      010011B7H   LINE      CODE     ---       #343
      010011BAH   LINE      CODE     ---       #344
      010011D3H   LINE      CODE     ---       #348
      010011D8H   LINE      CODE     ---       #349
      010011D8H   LINE      CODE     ---       #350
      010011D8H   LINE      CODE     ---       #351
      ---         BLOCKEND  ---      ---       LVL=0

      010017EDH   BLOCK     CODE     ---       LVL=0
      010017EDH   LINE      CODE     ---       #353
      010017EDH   LINE      CODE     ---       #354
      010017EDH   LINE      CODE     ---       #355
      010017EFH   LINE      CODE     ---       #356
      ---         BLOCKEND  ---      ---       LVL=0

      010017F0H   BLOCK     CODE     ---       LVL=0
      010017F0H   LINE      CODE     ---       #357
      010017F0H   LINE      CODE     ---       #358
      010017F0H   LINE      CODE     ---       #359
      010017F2H   LINE      CODE     ---       #360
      ---         BLOCKEND  ---      ---       LVL=0

      010017F3H   BLOCK     CODE     ---       LVL=0
      010017F3H   LINE      CODE     ---       #361
LX51 LINKER/LOCATER V4.66.30.0                                                        04/06/2017  12:39:39  PAGE 46


      010017F3H   LINE      CODE     ---       #362
      010017F3H   LINE      CODE     ---       #363
      010017F5H   LINE      CODE     ---       #364
      ---         BLOCKEND  ---      ---       LVL=0

      010017F6H   BLOCK     CODE     ---       LVL=0
      010017F6H   LINE      CODE     ---       #365
      010017F6H   LINE      CODE     ---       #366
      010017F6H   LINE      CODE     ---       #367
      010017F8H   LINE      CODE     ---       #368
      ---         BLOCKEND  ---      ---       LVL=0

      01000B78H   BLOCK     CODE     ---       LVL=0
      01000B78H   LINE      CODE     ---       #369
      01000B78H   LINE      CODE     ---       #370
      01000B78H   LINE      CODE     ---       #371
      01000BAEH   LINE      CODE     ---       #373
      01000BE4H   LINE      CODE     ---       #375
      01000C1AH   LINE      CODE     ---       #377
      01000C50H   LINE      CODE     ---       #380
      ---         BLOCKEND  ---      ---       LVL=0

      010017F9H   BLOCK     CODE     ---       LVL=0
      010017F9H   LINE      CODE     ---       #382
      010017F9H   LINE      CODE     ---       #383
      010017F9H   LINE      CODE     ---       #384
      ---         BLOCKEND  ---      ---       LVL=0

      ---         MODULE    ---      ---       LED
      00000008H   PUBLIC    DATA     ---       wireless_led
      0100002EH   PUBLIC    CODE     ---       SendTo595
      01001777H   PUBLIC    CODE     ---       _ledSetChannelsValue
      010017D1H   PUBLIC    CODE     ---       ledsOff
      010017CBH   PUBLIC    CODE     ---       ledModeOff
      010017C5H   PUBLIC    CODE     ---       ledModeOn
      010017BFH   PUBLIC    CODE     ---       ledChannel4Off
      010017B9H   PUBLIC    CODE     ---       ledChannel4On
      010017B3H   PUBLIC    CODE     ---       ledChannel3Off
      010017ADH   PUBLIC    CODE     ---       ledChannel3On
      010017A7H   PUBLIC    CODE     ---       ledChannel2Off
      010017A1H   PUBLIC    CODE     ---       ledChannel2On
      0100179BH   PUBLIC    CODE     ---       ledChannel1Off
      01001795H   PUBLIC    CODE     ---       ledChannel1On
      01001672H   PUBLIC    CODE     ---       _wirelessOn50msOff50ms
      0100000EH   PUBLIC    CODE     ---       _wirelessOn500msOff500ms
      0100176EH   PUBLIC    CODE     ---       wirelessLedOff
      01001765H   PUBLIC    CODE     ---       wirelessLedOn
      0100122FH   PUBLIC    CODE     ---       wirelessScan
      000000A2H   SFRSYM    DATA     BYTE      SPI0CKR
      00000080H   SFRSYM    DATA     BYTE      P0
      000000D0H.2 SFRSYM    DATA     BIT       PSW_OV
      00000090H   SFRSYM    DATA     BYTE      P1
      00000097H   SFRSYM    DATA     BYTE      WDTCN
      000000A0H   SFRSYM    DATA     BYTE      P2
      000000BCH   SFRSYM    DATA     BYTE      ADC0CF
      000000C8H   SFRSYM    DATA     BIT       TMR2CN0_T2XCLK
      000000C0H.7 SFRSYM    DATA     BIT       SMB0CN0_MASTER
      000000F9H   SFRSYM    DATA     WORD      PCA0
      000000E6H   SFRSYM    DATA     BYTE      EIE1
      000000C0H.1 SFRSYM    DATA     BIT       SMB0CN0_ACK
      0000008FH   SFRSYM    DATA     BYTE      PSCTL
      000000E4H   SFRSYM    DATA     BYTE      IT01CF
LX51 LINKER/LOCATER V4.66.30.0                                                        04/06/2017  12:39:39  PAGE 47


      000000C0H.6 SFRSYM    DATA     BIT       SMB0CN0_TXMODE
      000000ADH   SFRSYM    DATA     BYTE      DERIVID
      000000A4H   SFRSYM    DATA     BYTE      P0MDOUT
      000000A5H   SFRSYM    DATA     BYTE      P1MDOUT
      000000E8H.5 SFRSYM    DATA     BIT       ADC0CN0_ADINT
      000000CBH   SFRSYM    DATA     BYTE      TMR2RLH
      000000A6H   SFRSYM    DATA     BYTE      P2MDOUT
      000000A8H   SFRSYM    DATA     BYTE      IE
      00000093H   SFRSYM    DATA     BYTE      TMR3RLH
      000000F3H   SFRSYM    DATA     BYTE      EIP1
      00000098H.2 SFRSYM    DATA     BIT       SCON0_RB8
      000000CAH   SFRSYM    DATA     BYTE      TMR2RLL
      000000FCH   SFRSYM    DATA     BYTE      PCA0CPH0
      00000092H   SFRSYM    DATA     BYTE      TMR3RLL
      000000EAH   SFRSYM    DATA     BYTE      PCA0CPH1
      00000098H.3 SFRSYM    DATA     BIT       SCON0_TB8
      000000F0H   SFRSYM    DATA     BIT       B_B0
      00000082H   SFRSYM    DATA     WORD      DP
      000000ECH   SFRSYM    DATA     BYTE      PCA0CPH2
      000000F0H.1 SFRSYM    DATA     BIT       B_B1
      000000C3H   SFRSYM    DATA     WORD      ADC0GT
      000000F0H.2 SFRSYM    DATA     BIT       B_B2
      000000FBH   SFRSYM    DATA     BYTE      PCA0CPL0
      000000F0H.3 SFRSYM    DATA     BIT       B_B3
      000000D9H   SFRSYM    DATA     BYTE      PCA0MD
      000000DAH   SFRSYM    DATA     BYTE      PCA0CPM0
      000000E9H   SFRSYM    DATA     BYTE      PCA0CPL1
      000000F0H.4 SFRSYM    DATA     BIT       B_B4
      000000DBH   SFRSYM    DATA     BYTE      PCA0CPM1
      000000EBH   SFRSYM    DATA     BYTE      PCA0CPL2
      000000F0H.5 SFRSYM    DATA     BIT       B_B5
      000000DCH   SFRSYM    DATA     BYTE      PCA0CPM2
      000000B8H   SFRSYM    DATA     BYTE      IP
      000000B9H   SFRSYM    DATA     BYTE      ADC0TK
      000000F0H.6 SFRSYM    DATA     BIT       B_B6
      000000C5H   SFRSYM    DATA     WORD      ADC0LT
      00000098H.5 SFRSYM    DATA     BIT       SCON0_MCE
      000000F0H.7 SFRSYM    DATA     BIT       B_B7
      000000E1H   SFRSYM    DATA     BYTE      XBR0
      000000C1H   SFRSYM    DATA     BYTE      SMB0CF
      000000E2H   SFRSYM    DATA     BYTE      XBR1
      000000C0H.5 SFRSYM    DATA     BIT       SMB0CN0_STA
      000000E3H   SFRSYM    DATA     BYTE      XBR2
      000000BBH   SFRSYM    DATA     BYTE      ADC0MX
      000000E0H   SFRSYM    DATA     BIT       ACC_ACC0
      000000D1H   SFRSYM    DATA     BYTE      REF0CN
      0000008EH   SFRSYM    DATA     BYTE      CKCON0
      000000E0H.1 SFRSYM    DATA     BIT       ACC_ACC1
      000000C9H   SFRSYM    DATA     BYTE      REG0CN
      000000DDH   SFRSYM    DATA     BYTE      CRC0IN
      000000C8H.2 SFRSYM    DATA     BIT       TMR2CN0_TR2
      000000E0H.2 SFRSYM    DATA     BIT       ACC_ACC2
      000000E0H.3 SFRSYM    DATA     BIT       ACC_ACC3
      00000081H   SFRSYM    DATA     BYTE      SP
      0000009DH   SFRSYM    DATA     BYTE      CMP0MD
      000000E0H.4 SFRSYM    DATA     BIT       ACC_ACC4
      000000B1H   SFRSYM    DATA     BYTE      LFO0CN
      000000ABH   SFRSYM    DATA     BYTE      CMP1MD
      000000D8H   SFRSYM    DATA     BIT       PCA0CN0_CCF0
      000000E0H.5 SFRSYM    DATA     BIT       ACC_ACC5
      000000D8H.1 SFRSYM    DATA     BIT       PCA0CN0_CCF1
      000000E0H.6 SFRSYM    DATA     BIT       ACC_ACC6
LX51 LINKER/LOCATER V4.66.30.0                                                        04/06/2017  12:39:39  PAGE 48


      000000CCH   SFRSYM    DATA     WORD      TMR2
      000000D8H.2 SFRSYM    DATA     BIT       PCA0CN0_CCF2
      000000E0H.7 SFRSYM    DATA     BIT       ACC_ACC7
      00000094H   SFRSYM    DATA     WORD      TMR3
      000000C0H.3 SFRSYM    DATA     BIT       SMB0CN0_ACKRQ
      000000FFH   SFRSYM    DATA     BYTE      VDM0CN
      000000F1H   SFRSYM    DATA     BYTE      P0MDIN
      00000098H.4 SFRSYM    DATA     BIT       SCON0_REN
      000000ACH   SFRSYM    DATA     BYTE      SMB0TC
      000000F2H   SFRSYM    DATA     BYTE      P1MDIN
      000000C0H.4 SFRSYM    DATA     BIT       SMB0CN0_STO
      000000FEH   SFRSYM    DATA     BYTE      P0MASK
      000000EEH   SFRSYM    DATA     BYTE      P1MASK
      000000D0H.3 SFRSYM    DATA     BIT       PSW_RS0
      000000D8H.7 SFRSYM    DATA     BIT       PCA0CN0_CF
      0000009EH   SFRSYM    DATA     BYTE      PCA0CENT
      000000F8H.4 SFRSYM    DATA     BIT       SPI0CN0_RXOVRN
      000000D0H.4 SFRSYM    DATA     BIT       PSW_RS1
      000000E8H.7 SFRSYM    DATA     BIT       ADC0CN0_ADEN
      00000089H   SFRSYM    DATA     BYTE      TMOD
      00000088H   SFRSYM    DATA     BYTE      TCON
      000000CFH   SFRSYM    DATA     BYTE      CRC0FLIP
      000000D0H   SFRSYM    DATA     BIT       PSW_PARITY
      000000A8H.4 SFRSYM    DATA     BIT       IE_ES0
      0000009FH   SFRSYM    DATA     BYTE      CMP0MX
      000000A8H.1 SFRSYM    DATA     BIT       IE_ET0
      000000AAH   SFRSYM    DATA     BYTE      CMP1MX
      000000A8H.3 SFRSYM    DATA     BIT       IE_ET1
      000000D4H   SFRSYM    DATA     BYTE      P0SKIP
      000000A8H.5 SFRSYM    DATA     BIT       IE_ET2
      000000D5H   SFRSYM    DATA     BYTE      P1SKIP
      000000E8H   SFRSYM    DATA     BYTE      ADC0CN0
      000000A8H   SFRSYM    DATA     BIT       IE_EX0
      000000B2H   SFRSYM    DATA     BYTE      ADC0CN1
      000000D8H.6 SFRSYM    DATA     BIT       PCA0CN0_CR
      000000A8H.2 SFRSYM    DATA     BIT       IE_EX1
      00000098H.7 SFRSYM    DATA     BIT       SCON0_SMODE
      000000B5H   SFRSYM    DATA     BYTE      DEVICEID
      000000A9H   SFRSYM    DATA     BYTE      CLKSEL
      000000F8H   SFRSYM    DATA     BIT       SPI0CN0_SPIEN
      000000F0H   SFRSYM    DATA     BYTE      B
      000000BEH   SFRSYM    DATA     BYTE      ADC0H
      000000D2H   SFRSYM    DATA     BYTE      CRC0AUTO
      000000E8H.6 SFRSYM    DATA     BIT       ADC0CN0_ADBMEN
      000000CAH   SFRSYM    DATA     WORD      TMR2RL
      000000BDH   SFRSYM    DATA     BYTE      ADC0L
      00000092H   SFRSYM    DATA     WORD      TMR3RL
      000000D8H   SFRSYM    DATA     BYTE      PCA0CN0
      000000E0H   SFRSYM    DATA     BYTE      ACC
      000000FBH   SFRSYM    DATA     WORD      PCA0CP0
      000000E9H   SFRSYM    DATA     WORD      PCA0CP1
      000000EBH   SFRSYM    DATA     WORD      PCA0CP2
      000000CEH   SFRSYM    DATA     BYTE      CRC0CN0
      0000008CH   SFRSYM    DATA     BYTE      TH0
      000000B8H.4 SFRSYM    DATA     BIT       IP_PS0
      0000008DH   SFRSYM    DATA     BYTE      TH1
      000000FAH   SFRSYM    DATA     BYTE      PCA0H
      000000B8H.1 SFRSYM    DATA     BIT       IP_PT0
      000000B8H.3 SFRSYM    DATA     BIT       IP_PT1
      000000C0H.2 SFRSYM    DATA     BIT       SMB0CN0_ARBLOST
      000000B8H.5 SFRSYM    DATA     BIT       IP_PT2
      0000008AH   SFRSYM    DATA     BYTE      TL0
LX51 LINKER/LOCATER V4.66.30.0                                                        04/06/2017  12:39:39  PAGE 49


      000000F8H.1 SFRSYM    DATA     BIT       SPI0CN0_TXBMT
      000000D0H.5 SFRSYM    DATA     BIT       PSW_F0
      000000A8H.6 SFRSYM    DATA     BIT       IE_ESPI0
      0000008BH   SFRSYM    DATA     BYTE      TL1
      000000F9H   SFRSYM    DATA     BYTE      PCA0L
      000000C0H   SFRSYM    DATA     BIT       SMB0CN0_SI
      000000D0H.1 SFRSYM    DATA     BIT       PSW_F1
      00000080H   SFRSYM    DATA     BIT       P0_B0
      000000B8H   SFRSYM    DATA     BIT       IP_PX0
      00000090H   SFRSYM    DATA     BIT       P1_B0
      00000080H.1 SFRSYM    DATA     BIT       P0_B1
      000000B8H.2 SFRSYM    DATA     BIT       IP_PX1
      0000009BH   SFRSYM    DATA     BYTE      CMP0CN0
      00000088H.1 SFRSYM    DATA     BIT       TCON_IE0
      000000A0H   SFRSYM    DATA     BIT       P2_B0
      00000090H.1 SFRSYM    DATA     BIT       P1_B1
      00000080H.2 SFRSYM    DATA     BIT       P0_B2
      000000BFH   SFRSYM    DATA     BYTE      CMP1CN0
      00000088H.3 SFRSYM    DATA     BIT       TCON_IE1
      000000A0H.1 SFRSYM    DATA     BIT       P2_B1
      00000090H.2 SFRSYM    DATA     BIT       P1_B2
      00000080H.3 SFRSYM    DATA     BIT       P0_B3
      000000C0H   SFRSYM    DATA     BYTE      SMB0CN0
      00000090H.3 SFRSYM    DATA     BIT       P1_B3
      00000080H.4 SFRSYM    DATA     BIT       P0_B4
      00000090H.4 SFRSYM    DATA     BIT       P1_B4
      00000080H.5 SFRSYM    DATA     BIT       P0_B5
      00000090H.5 SFRSYM    DATA     BIT       P1_B5
      00000080H.6 SFRSYM    DATA     BIT       P0_B6
      00000090H.6 SFRSYM    DATA     BIT       P1_B6
      00000080H.7 SFRSYM    DATA     BIT       P0_B7
      00000090H.7 SFRSYM    DATA     BIT       P1_B7
      00000083H   SFRSYM    DATA     BYTE      DPH
      000000C4H   SFRSYM    DATA     BYTE      ADC0GTH
      000000C8H.7 SFRSYM    DATA     BIT       TMR2CN0_TF2H
      000000C8H.3 SFRSYM    DATA     BIT       TMR2CN0_T2SPLIT
      000000D0H.6 SFRSYM    DATA     BIT       PSW_AC
      000000F8H   SFRSYM    DATA     BYTE      SPI0CN0
      000000C7H   SFRSYM    DATA     BYTE      HFO0CAL
      00000080H   SFRSYM    DATA     BIT       RCK
      00000088H.5 SFRSYM    DATA     BIT       TCON_TF0
      00000098H   SFRSYM    DATA     BIT       SCON0_RI
      00000082H   SFRSYM    DATA     BYTE      DPL
      00000080H.1 SFRSYM    DATA     BIT       SCK
      00000088H.7 SFRSYM    DATA     BIT       TCON_TF1
      00000099H   SFRSYM    DATA     BYTE      SBUF0
      00000087H   SFRSYM    DATA     BYTE      PCON0
      000000C3H   SFRSYM    DATA     BYTE      ADC0GTL
      000000C8H.6 SFRSYM    DATA     BIT       TMR2CN0_TF2L
      00000098H.1 SFRSYM    DATA     BIT       SCON0_TI
      000000E8H   SFRSYM    DATA     BIT       ADC0CN0_ADCM0
      000000C6H   SFRSYM    DATA     BYTE      ADC0LTH
      00000088H   SFRSYM    DATA     BIT       TCON_IT0
      000000E8H.1 SFRSYM    DATA     BIT       ADC0CN0_ADCM1
      000000EFH   SFRSYM    DATA     BYTE      RSTSRC
      000000FDH   SFRSYM    DATA     BYTE      P0MAT
      000000DEH   SFRSYM    DATA     BYTE      CRC0DAT
      00000088H.2 SFRSYM    DATA     BIT       TCON_IT1
      000000E8H.2 SFRSYM    DATA     BIT       ADC0CN0_ADCM2
      00000098H   SFRSYM    DATA     BYTE      SCON0
      000000F6H   SFRSYM    DATA     BYTE      PRTDRV
      000000EDH   SFRSYM    DATA     BYTE      P1MAT
LX51 LINKER/LOCATER V4.66.30.0                                                        04/06/2017  12:39:39  PAGE 50


      000000E8H.3 SFRSYM    DATA     BIT       ADC0CN0_ADWINT
      000000E8H.4 SFRSYM    DATA     BIT       ADC0CN0_ADBUSY
      000000D6H   SFRSYM    DATA     BYTE      SMB0ADM
      000000C5H   SFRSYM    DATA     BYTE      ADC0LTL
      000000F8H.5 SFRSYM    DATA     BIT       SPI0CN0_MODF
      000000B8H.6 SFRSYM    DATA     BIT       IP_PSPI0
      0000009CH   SFRSYM    DATA     BYTE      PCA0CLR
      000000C8H   SFRSYM    DATA     BYTE      TMR2CN0
      00000091H   SFRSYM    DATA     BYTE      TMR3CN0
      000000A0H   SFRSYM    DATA     BIT       SER
      000000D7H   SFRSYM    DATA     BYTE      SMB0ADR
      00000088H.4 SFRSYM    DATA     BIT       TCON_TR0
      000000C8H.4 SFRSYM    DATA     BIT       TMR2CN0_TF2CEN
      00000088H.6 SFRSYM    DATA     BIT       TCON_TR1
      000000C2H   SFRSYM    DATA     BYTE      SMB0DAT
      000000CDH   SFRSYM    DATA     BYTE      TMR2H
      000000A1H   SFRSYM    DATA     BYTE      SPI0CFG
      00000095H   SFRSYM    DATA     BYTE      TMR3H
      000000D3H   SFRSYM    DATA     BYTE      CRC0CNT
      00000096H   SFRSYM    DATA     BYTE      PCA0POL
      000000CCH   SFRSYM    DATA     BYTE      TMR2L
      000000F8H.7 SFRSYM    DATA     BIT       SPI0CN0_SPIF
      00000094H   SFRSYM    DATA     BYTE      TMR3L
      000000DFH   SFRSYM    DATA     BYTE      ADC0PWR
      000000A8H.7 SFRSYM    DATA     BIT       IE_EA
      000000C8H.5 SFRSYM    DATA     BIT       TMR2CN0_TF2LEN
      000000F8H.6 SFRSYM    DATA     BIT       SPI0CN0_WCOL
      000000F8H.2 SFRSYM    DATA     BIT       SPI0CN0_NSSMD0
      000000D0H.7 SFRSYM    DATA     BIT       PSW_CY
      000000A3H   SFRSYM    DATA     BYTE      SPI0DAT
      000000F8H.3 SFRSYM    DATA     BIT       SPI0CN0_NSSMD1
      000000BDH   SFRSYM    DATA     WORD      ADC0
      000000D0H   SFRSYM    DATA     BYTE      PSW
      000000F7H   SFRSYM    DATA     BYTE      PCA0PWM
      000000B6H   SFRSYM    DATA     BYTE      REVID
      000000B7H   SFRSYM    DATA     BYTE      FLKEY
      000000B3H   SFRSYM    DATA     BYTE      ADC0AC
      0100175CH   SYMBOL    CODE     ---       _wirelessLedIsOn
      010016CDH   SYMBOL    CODE     ---       _wirelessLedTog
      00000012H   SYMBOL    DATA     BYTE      led_val

      0100175CH   BLOCK     CODE     ---       LVL=0
      00000007H   SYMBOL    DATA     BYTE      key_val
      0100175CH   LINE      CODE     ---       #30
      0100175CH   LINE      CODE     ---       #31
      0100175CH   LINE      CODE     ---       #32
      01001763H   LINE      CODE     ---       #33
      01001763H   LINE      CODE     ---       #34
      01001764H   LINE      CODE     ---       #35
      01001764H   LINE      CODE     ---       #37
      01001764H   LINE      CODE     ---       #38
      01001764H   LINE      CODE     ---       #39
      01001764H   LINE      CODE     ---       #40
      ---         BLOCKEND  ---      ---       LVL=0

      010016CDH   BLOCK     CODE     ---       LVL=0
      00000007H   SYMBOL    DATA     BYTE      key_val
      010016CDH   LINE      CODE     ---       #41
      010016CDH   LINE      CODE     ---       #42
      010016CDH   LINE      CODE     ---       #43
      010016D4H   LINE      CODE     ---       #44
      010016D4H   LINE      CODE     ---       #45
LX51 LINKER/LOCATER V4.66.30.0                                                        04/06/2017  12:39:39  PAGE 51


      010016D7H   LINE      CODE     ---       #46
      010016D9H   LINE      CODE     ---       #48
      010016D9H   LINE      CODE     ---       #49
      010016DCH   LINE      CODE     ---       #50
      010016DCH   LINE      CODE     ---       #51
      ---         BLOCKEND  ---      ---       LVL=0

      0100122FH   BLOCK     CODE     ---       LVL=0
      0100122FH   LINE      CODE     ---       #53
      0100122FH   LINE      CODE     ---       #54
      0100122FH   LINE      CODE     ---       #55
      0100123FH   LINE      CODE     ---       #59
      0100123FH   LINE      CODE     ---       #60
      01001241H   LINE      CODE     ---       #61
      01001248H   LINE      CODE     ---       #62
      01001248H   LINE      CODE     ---       #64
      0100124FH   LINE      CODE     ---       #65
      0100124FH   LINE      CODE     ---       #66
      01001254H   LINE      CODE     ---       #67
      01001254H   LINE      CODE     ---       #68
      01001257H   LINE      CODE     ---       #69
      01001257H   LINE      CODE     ---       #70
      01001259H   LINE      CODE     ---       #71
      0100125CH   LINE      CODE     ---       #72
      0100125EH   LINE      CODE     ---       #74
      0100125EH   LINE      CODE     ---       #75
      01001261H   LINE      CODE     ---       #76
      01001261H   LINE      CODE     ---       #77
      01001264H   LINE      CODE     ---       #78
      01001269H   LINE      CODE     ---       #79
      0100127AH   LINE      CODE     ---       #82
      0100127AH   LINE      CODE     ---       #83
      0100127DH   LINE      CODE     ---       #84
      01001282H   LINE      CODE     ---       #85
      01001282H   LINE      CODE     ---       #86
      01001282H   LINE      CODE     ---       #87
      01001282H   LINE      CODE     ---       #88
      ---         BLOCKEND  ---      ---       LVL=0

      01001765H   BLOCK     CODE     ---       LVL=0
      01001765H   LINE      CODE     ---       #90
      01001765H   LINE      CODE     ---       #91
      01001765H   LINE      CODE     ---       #92
      01001768H   LINE      CODE     ---       #93
      0100176BH   LINE      CODE     ---       #94
      ---         BLOCKEND  ---      ---       LVL=0

      0100176EH   BLOCK     CODE     ---       LVL=0
      0100176EH   LINE      CODE     ---       #96
      0100176EH   LINE      CODE     ---       #97
      0100176EH   LINE      CODE     ---       #98
      01001771H   LINE      CODE     ---       #99
      01001774H   LINE      CODE     ---       #100
      ---         BLOCKEND  ---      ---       LVL=0

      0100000EH   BLOCK     CODE     ---       LVL=0
      00000007H   SYMBOL    DATA     BYTE      key_val
      0100000EH   LINE      CODE     ---       #102
      0100000EH   LINE      CODE     ---       #103
      0100000EH   LINE      CODE     ---       #104
      01000012H   LINE      CODE     ---       #105
      01000012H   LINE      CODE     ---       #106
LX51 LINKER/LOCATER V4.66.30.0                                                        04/06/2017  12:39:39  PAGE 52


      01000015H   LINE      CODE     ---       #107
      01000018H   LINE      CODE     ---       #108
      0100001BH   LINE      CODE     ---       #109
      0100001DH   LINE      CODE     ---       #110
      01000020H   LINE      CODE     ---       #111
      01000023H   LINE      CODE     ---       #112
      01000026H   LINE      CODE     ---       #113
      01000028H   LINE      CODE     ---       #114
      0100002AH   LINE      CODE     ---       #115
      0100002AH   LINE      CODE     ---       #116
      ---         BLOCKEND  ---      ---       LVL=0

      01001672H   BLOCK     CODE     ---       LVL=0
      00000007H   SYMBOL    DATA     BYTE      key_val
      01001672H   LINE      CODE     ---       #117
      01001672H   LINE      CODE     ---       #118
      01001672H   LINE      CODE     ---       #119
      01001676H   LINE      CODE     ---       #120
      01001676H   LINE      CODE     ---       #121
      01001679H   LINE      CODE     ---       #122
      0100167CH   LINE      CODE     ---       #123
      0100167FH   LINE      CODE     ---       #124
      01001681H   LINE      CODE     ---       #125
      01001684H   LINE      CODE     ---       #126
      01001687H   LINE      CODE     ---       #127
      01001689H   LINE      CODE     ---       #128
      0100168CH   LINE      CODE     ---       #129
      0100168CH   LINE      CODE     ---       #130
      ---         BLOCKEND  ---      ---       LVL=0

      01001795H   BLOCK     CODE     ---       LVL=0
      01001795H   LINE      CODE     ---       #132
      01001795H   LINE      CODE     ---       #133
      01001795H   LINE      CODE     ---       #134
      01001798H   LINE      CODE     ---       #135
      ---         BLOCKEND  ---      ---       LVL=0

      0100179BH   BLOCK     CODE     ---       LVL=0
      0100179BH   LINE      CODE     ---       #137
      0100179BH   LINE      CODE     ---       #138
      0100179BH   LINE      CODE     ---       #139
      0100179EH   LINE      CODE     ---       #140
      ---         BLOCKEND  ---      ---       LVL=0

      010017A1H   BLOCK     CODE     ---       LVL=0
      010017A1H   LINE      CODE     ---       #142
      010017A1H   LINE      CODE     ---       #143
      010017A1H   LINE      CODE     ---       #144
      010017A4H   LINE      CODE     ---       #145
      ---         BLOCKEND  ---      ---       LVL=0

      010017A7H   BLOCK     CODE     ---       LVL=0
      010017A7H   LINE      CODE     ---       #147
      010017A7H   LINE      CODE     ---       #148
      010017A7H   LINE      CODE     ---       #149
      010017AAH   LINE      CODE     ---       #150
      ---         BLOCKEND  ---      ---       LVL=0

      010017ADH   BLOCK     CODE     ---       LVL=0
      010017ADH   LINE      CODE     ---       #153
      010017ADH   LINE      CODE     ---       #154
      010017ADH   LINE      CODE     ---       #155
LX51 LINKER/LOCATER V4.66.30.0                                                        04/06/2017  12:39:39  PAGE 53


      010017B0H   LINE      CODE     ---       #156
      ---         BLOCKEND  ---      ---       LVL=0

      010017B3H   BLOCK     CODE     ---       LVL=0
      010017B3H   LINE      CODE     ---       #158
      010017B3H   LINE      CODE     ---       #159
      010017B3H   LINE      CODE     ---       #160
      010017B6H   LINE      CODE     ---       #161
      ---         BLOCKEND  ---      ---       LVL=0

      010017B9H   BLOCK     CODE     ---       LVL=0
      010017B9H   LINE      CODE     ---       #163
      010017B9H   LINE      CODE     ---       #164
      010017B9H   LINE      CODE     ---       #165
      010017BCH   LINE      CODE     ---       #166
      ---         BLOCKEND  ---      ---       LVL=0

      010017BFH   BLOCK     CODE     ---       LVL=0
      010017BFH   LINE      CODE     ---       #168
      010017BFH   LINE      CODE     ---       #169
      010017BFH   LINE      CODE     ---       #170
      010017C2H   LINE      CODE     ---       #171
      ---         BLOCKEND  ---      ---       LVL=0

      010017C5H   BLOCK     CODE     ---       LVL=0
      010017C5H   LINE      CODE     ---       #174
      010017C5H   LINE      CODE     ---       #175
      010017C5H   LINE      CODE     ---       #176
      010017C8H   LINE      CODE     ---       #177
      ---         BLOCKEND  ---      ---       LVL=0

      010017CBH   BLOCK     CODE     ---       LVL=0
      010017CBH   LINE      CODE     ---       #179
      010017CBH   LINE      CODE     ---       #180
      010017CBH   LINE      CODE     ---       #181
      010017CEH   LINE      CODE     ---       #182
      ---         BLOCKEND  ---      ---       LVL=0

      010017D1H   BLOCK     CODE     ---       LVL=0
      010017D1H   LINE      CODE     ---       #184
      010017D1H   LINE      CODE     ---       #185
      010017D1H   LINE      CODE     ---       #186
      010017D4H   LINE      CODE     ---       #187
      ---         BLOCKEND  ---      ---       LVL=0

      01001777H   BLOCK     CODE     ---       LVL=0
      00000007H   SYMBOL    DATA     BYTE      val
      01001777H   LINE      CODE     ---       #194
      01001777H   LINE      CODE     ---       #195
      01001777H   LINE      CODE     ---       #196
      0100177AH   LINE      CODE     ---       #197
      0100177DH   LINE      CODE     ---       #198
      ---         BLOCKEND  ---      ---       LVL=0

      0100002EH   BLOCK     CODE     ---       LVL=0
      0100002EH   BLOCK     CODE     NEAR LAB  LVL=1
      00000007H   SYMBOL    DATA     CHAR      i
      00000006H   SYMBOL    DATA     BYTE      temp
      ---         BLOCKEND  ---      ---       LVL=1
      0100002EH   LINE      CODE     ---       #200
      0100002EH   LINE      CODE     ---       #201
      0100002EH   LINE      CODE     ---       #202
LX51 LINKER/LOCATER V4.66.30.0                                                        04/06/2017  12:39:39  PAGE 54


      01000030H   LINE      CODE     ---       #203
      01000032H   LINE      CODE     ---       #204
      01000032H   LINE      CODE     ---       #205
      01000032H   LINE      CODE     ---       #206
      0100003DH   LINE      CODE     ---       #207
      01000041H   LINE      CODE     ---       #208
      01000043H   LINE      CODE     ---       #209
      01000044H   LINE      CODE     ---       #210
      01000045H   LINE      CODE     ---       #211
      01000047H   LINE      CODE     ---       #212
      0100004BH   LINE      CODE     ---       #213
      0100004DH   LINE      CODE     ---       #214
      0100004EH   LINE      CODE     ---       #215
      0100004FH   LINE      CODE     ---       #216
      01000051H   LINE      CODE     ---       #217
      ---         BLOCKEND  ---      ---       LVL=0

      ---         MODULE    ---      ---       LOGIC
      0000005EH   PUBLIC    DATA     DWORD     ad_val
      0000005DH   PUBLIC    DATA     BYTE      work_mode_params
      0000005BH   PUBLIC    DATA     WORD      time_level
      00000029H   PUBLIC    DATA     ---       device_def
      010017FCH   PUBLIC    CONST    ---       table
      01001706H   PUBLIC    CODE     ---       dealNormalMode
      00000020H.3 PUBLIC    BIT      BIT       ?_setKeyPin?BIT
      0100156AH   PUBLIC    CODE     ---       _setKeyPin
      01000931H   PUBLIC    CODE     ---       adScan
      010017D7H   PUBLIC    CODE     ---       deviceInit
      000000A2H   SFRSYM    DATA     BYTE      SPI0CKR
      00000080H   SFRSYM    DATA     BYTE      P0
      000000D0H.2 SFRSYM    DATA     BIT       PSW_OV
      00000090H   SFRSYM    DATA     BYTE      P1
      00000097H   SFRSYM    DATA     BYTE      WDTCN
      000000A0H   SFRSYM    DATA     BYTE      P2
      000000BCH   SFRSYM    DATA     BYTE      ADC0CF
      000000C8H   SFRSYM    DATA     BIT       TMR2CN0_T2XCLK
      000000C0H.7 SFRSYM    DATA     BIT       SMB0CN0_MASTER
      000000F9H   SFRSYM    DATA     WORD      PCA0
      000000E6H   SFRSYM    DATA     BYTE      EIE1
      000000C0H.1 SFRSYM    DATA     BIT       SMB0CN0_ACK
      0000008FH   SFRSYM    DATA     BYTE      PSCTL
      000000E4H   SFRSYM    DATA     BYTE      IT01CF
      000000C0H.6 SFRSYM    DATA     BIT       SMB0CN0_TXMODE
      000000ADH   SFRSYM    DATA     BYTE      DERIVID
      000000A4H   SFRSYM    DATA     BYTE      P0MDOUT
      000000A5H   SFRSYM    DATA     BYTE      P1MDOUT
      000000E8H.5 SFRSYM    DATA     BIT       ADC0CN0_ADINT
      000000CBH   SFRSYM    DATA     BYTE      TMR2RLH
      000000A6H   SFRSYM    DATA     BYTE      P2MDOUT
      000000A8H   SFRSYM    DATA     BYTE      IE
      00000093H   SFRSYM    DATA     BYTE      TMR3RLH
      000000F3H   SFRSYM    DATA     BYTE      EIP1
      00000098H.2 SFRSYM    DATA     BIT       SCON0_RB8
      000000CAH   SFRSYM    DATA     BYTE      TMR2RLL
      000000FCH   SFRSYM    DATA     BYTE      PCA0CPH0
      00000092H   SFRSYM    DATA     BYTE      TMR3RLL
      000000EAH   SFRSYM    DATA     BYTE      PCA0CPH1
      00000098H.3 SFRSYM    DATA     BIT       SCON0_TB8
      000000F0H   SFRSYM    DATA     BIT       B_B0
      00000082H   SFRSYM    DATA     WORD      DP
      000000ECH   SFRSYM    DATA     BYTE      PCA0CPH2
      000000F0H.1 SFRSYM    DATA     BIT       B_B1
LX51 LINKER/LOCATER V4.66.30.0                                                        04/06/2017  12:39:39  PAGE 55


      000000C3H   SFRSYM    DATA     WORD      ADC0GT
      000000F0H.2 SFRSYM    DATA     BIT       B_B2
      000000FBH   SFRSYM    DATA     BYTE      PCA0CPL0
      000000F0H.3 SFRSYM    DATA     BIT       B_B3
      000000D9H   SFRSYM    DATA     BYTE      PCA0MD
      000000DAH   SFRSYM    DATA     BYTE      PCA0CPM0
      000000E9H   SFRSYM    DATA     BYTE      PCA0CPL1
      000000F0H.4 SFRSYM    DATA     BIT       B_B4
      000000DBH   SFRSYM    DATA     BYTE      PCA0CPM1
      000000EBH   SFRSYM    DATA     BYTE      PCA0CPL2
      000000F0H.5 SFRSYM    DATA     BIT       B_B5
      000000DCH   SFRSYM    DATA     BYTE      PCA0CPM2
      000000B8H   SFRSYM    DATA     BYTE      IP
      000000B9H   SFRSYM    DATA     BYTE      ADC0TK
      000000F0H.6 SFRSYM    DATA     BIT       B_B6
      000000C5H   SFRSYM    DATA     WORD      ADC0LT
      00000090H   SFRSYM    DATA     BIT       KEY1
      00000098H.5 SFRSYM    DATA     BIT       SCON0_MCE
      000000F0H.7 SFRSYM    DATA     BIT       B_B7
      00000080H.3 SFRSYM    DATA     BIT       KEY2
      00000080H.2 SFRSYM    DATA     BIT       KEY3
      000000E1H   SFRSYM    DATA     BYTE      XBR0
      000000C1H   SFRSYM    DATA     BYTE      SMB0CF
      00000090H.5 SFRSYM    DATA     BIT       KEY4
      000000E2H   SFRSYM    DATA     BYTE      XBR1
      000000C0H.5 SFRSYM    DATA     BIT       SMB0CN0_STA
      000000E3H   SFRSYM    DATA     BYTE      XBR2
      000000BBH   SFRSYM    DATA     BYTE      ADC0MX
      000000E0H   SFRSYM    DATA     BIT       ACC_ACC0
      000000D1H   SFRSYM    DATA     BYTE      REF0CN
      0000008EH   SFRSYM    DATA     BYTE      CKCON0
      000000E0H.1 SFRSYM    DATA     BIT       ACC_ACC1
      000000C9H   SFRSYM    DATA     BYTE      REG0CN
      000000DDH   SFRSYM    DATA     BYTE      CRC0IN
      000000C8H.2 SFRSYM    DATA     BIT       TMR2CN0_TR2
      000000E0H.2 SFRSYM    DATA     BIT       ACC_ACC2
      000000E0H.3 SFRSYM    DATA     BIT       ACC_ACC3
      00000081H   SFRSYM    DATA     BYTE      SP
      0000009DH   SFRSYM    DATA     BYTE      CMP0MD
      000000E0H.4 SFRSYM    DATA     BIT       ACC_ACC4
      000000B1H   SFRSYM    DATA     BYTE      LFO0CN
      000000ABH   SFRSYM    DATA     BYTE      CMP1MD
      000000D8H   SFRSYM    DATA     BIT       PCA0CN0_CCF0
      000000E0H.5 SFRSYM    DATA     BIT       ACC_ACC5
      000000D8H.1 SFRSYM    DATA     BIT       PCA0CN0_CCF1
      000000E0H.6 SFRSYM    DATA     BIT       ACC_ACC6
      000000CCH   SFRSYM    DATA     WORD      TMR2
      000000D8H.2 SFRSYM    DATA     BIT       PCA0CN0_CCF2
      000000E0H.7 SFRSYM    DATA     BIT       ACC_ACC7
      00000094H   SFRSYM    DATA     WORD      TMR3
      000000C0H.3 SFRSYM    DATA     BIT       SMB0CN0_ACKRQ
      000000FFH   SFRSYM    DATA     BYTE      VDM0CN
      000000F1H   SFRSYM    DATA     BYTE      P0MDIN
      00000098H.4 SFRSYM    DATA     BIT       SCON0_REN
      000000ACH   SFRSYM    DATA     BYTE      SMB0TC
      000000F2H   SFRSYM    DATA     BYTE      P1MDIN
      000000C0H.4 SFRSYM    DATA     BIT       SMB0CN0_STO
      000000FEH   SFRSYM    DATA     BYTE      P0MASK
      000000EEH   SFRSYM    DATA     BYTE      P1MASK
      00000090H.4 SFRSYM    DATA     BIT       RELAY1
      00000090H.3 SFRSYM    DATA     BIT       RELAY2
      000000D0H.3 SFRSYM    DATA     BIT       PSW_RS0
LX51 LINKER/LOCATER V4.66.30.0                                                        04/06/2017  12:39:39  PAGE 56


      000000D8H.7 SFRSYM    DATA     BIT       PCA0CN0_CF
      0000009EH   SFRSYM    DATA     BYTE      PCA0CENT
      00000080H.7 SFRSYM    DATA     BIT       RELAY3
      000000F8H.4 SFRSYM    DATA     BIT       SPI0CN0_RXOVRN
      000000D0H.4 SFRSYM    DATA     BIT       PSW_RS1
      00000090H.1 SFRSYM    DATA     BIT       RELAY4
      000000E8H.7 SFRSYM    DATA     BIT       ADC0CN0_ADEN
      00000089H   SFRSYM    DATA     BYTE      TMOD
      00000088H   SFRSYM    DATA     BYTE      TCON
      000000CFH   SFRSYM    DATA     BYTE      CRC0FLIP
      000000D0H   SFRSYM    DATA     BIT       PSW_PARITY
      000000A8H.4 SFRSYM    DATA     BIT       IE_ES0
      0000009FH   SFRSYM    DATA     BYTE      CMP0MX
      000000A8H.1 SFRSYM    DATA     BIT       IE_ET0
      000000AAH   SFRSYM    DATA     BYTE      CMP1MX
      000000A8H.3 SFRSYM    DATA     BIT       IE_ET1
      000000D4H   SFRSYM    DATA     BYTE      P0SKIP
      000000A8H.5 SFRSYM    DATA     BIT       IE_ET2
      000000D5H   SFRSYM    DATA     BYTE      P1SKIP
      000000E8H   SFRSYM    DATA     BYTE      ADC0CN0
      000000A8H   SFRSYM    DATA     BIT       IE_EX0
      000000B2H   SFRSYM    DATA     BYTE      ADC0CN1
      000000D8H.6 SFRSYM    DATA     BIT       PCA0CN0_CR
      000000A8H.2 SFRSYM    DATA     BIT       IE_EX1
      00000098H.7 SFRSYM    DATA     BIT       SCON0_SMODE
      000000B5H   SFRSYM    DATA     BYTE      DEVICEID
      000000A9H   SFRSYM    DATA     BYTE      CLKSEL
      000000F8H   SFRSYM    DATA     BIT       SPI0CN0_SPIEN
      000000F0H   SFRSYM    DATA     BYTE      B
      000000BEH   SFRSYM    DATA     BYTE      ADC0H
      000000D2H   SFRSYM    DATA     BYTE      CRC0AUTO
      000000E8H.6 SFRSYM    DATA     BIT       ADC0CN0_ADBMEN
      000000CAH   SFRSYM    DATA     WORD      TMR2RL
      000000BDH   SFRSYM    DATA     BYTE      ADC0L
      00000092H   SFRSYM    DATA     WORD      TMR3RL
      000000D8H   SFRSYM    DATA     BYTE      PCA0CN0
      000000E0H   SFRSYM    DATA     BYTE      ACC
      000000FBH   SFRSYM    DATA     WORD      PCA0CP0
      000000E9H   SFRSYM    DATA     WORD      PCA0CP1
      000000EBH   SFRSYM    DATA     WORD      PCA0CP2
      000000CEH   SFRSYM    DATA     BYTE      CRC0CN0
      0000008CH   SFRSYM    DATA     BYTE      TH0
      000000B8H.4 SFRSYM    DATA     BIT       IP_PS0
      0000008DH   SFRSYM    DATA     BYTE      TH1
      000000FAH   SFRSYM    DATA     BYTE      PCA0H
      000000B8H.1 SFRSYM    DATA     BIT       IP_PT0
      000000B8H.3 SFRSYM    DATA     BIT       IP_PT1
      000000C0H.2 SFRSYM    DATA     BIT       SMB0CN0_ARBLOST
      000000B8H.5 SFRSYM    DATA     BIT       IP_PT2
      0000008AH   SFRSYM    DATA     BYTE      TL0
      000000F8H.1 SFRSYM    DATA     BIT       SPI0CN0_TXBMT
      000000D0H.5 SFRSYM    DATA     BIT       PSW_F0
      000000A8H.6 SFRSYM    DATA     BIT       IE_ESPI0
      0000008BH   SFRSYM    DATA     BYTE      TL1
      000000F9H   SFRSYM    DATA     BYTE      PCA0L
      000000C0H   SFRSYM    DATA     BIT       SMB0CN0_SI
      000000D0H.1 SFRSYM    DATA     BIT       PSW_F1
      00000080H   SFRSYM    DATA     BIT       P0_B0
      000000B8H   SFRSYM    DATA     BIT       IP_PX0
      00000090H   SFRSYM    DATA     BIT       P1_B0
      00000080H.1 SFRSYM    DATA     BIT       P0_B1
      000000B8H.2 SFRSYM    DATA     BIT       IP_PX1
LX51 LINKER/LOCATER V4.66.30.0                                                        04/06/2017  12:39:39  PAGE 57


      0000009BH   SFRSYM    DATA     BYTE      CMP0CN0
      00000088H.1 SFRSYM    DATA     BIT       TCON_IE0
      000000A0H   SFRSYM    DATA     BIT       P2_B0
      00000090H.1 SFRSYM    DATA     BIT       P1_B1
      00000080H.2 SFRSYM    DATA     BIT       P0_B2
      000000BFH   SFRSYM    DATA     BYTE      CMP1CN0
      00000088H.3 SFRSYM    DATA     BIT       TCON_IE1
      000000A0H.1 SFRSYM    DATA     BIT       P2_B1
      00000090H.2 SFRSYM    DATA     BIT       P1_B2
      00000080H.3 SFRSYM    DATA     BIT       P0_B3
      000000C0H   SFRSYM    DATA     BYTE      SMB0CN0
      00000090H.3 SFRSYM    DATA     BIT       P1_B3
      00000080H.4 SFRSYM    DATA     BIT       P0_B4
      00000090H.4 SFRSYM    DATA     BIT       P1_B4
      00000080H.5 SFRSYM    DATA     BIT       P0_B5
      00000090H.5 SFRSYM    DATA     BIT       P1_B5
      00000080H.6 SFRSYM    DATA     BIT       P0_B6
      00000090H.6 SFRSYM    DATA     BIT       P1_B6
      00000080H.7 SFRSYM    DATA     BIT       P0_B7
      00000090H.7 SFRSYM    DATA     BIT       P1_B7
      00000083H   SFRSYM    DATA     BYTE      DPH
      000000C4H   SFRSYM    DATA     BYTE      ADC0GTH
      000000C8H.7 SFRSYM    DATA     BIT       TMR2CN0_TF2H
      000000C8H.3 SFRSYM    DATA     BIT       TMR2CN0_T2SPLIT
      000000D0H.6 SFRSYM    DATA     BIT       PSW_AC
      000000F8H   SFRSYM    DATA     BYTE      SPI0CN0
      000000C7H   SFRSYM    DATA     BYTE      HFO0CAL
      00000080H   SFRSYM    DATA     BIT       RCK
      00000088H.5 SFRSYM    DATA     BIT       TCON_TF0
      00000098H   SFRSYM    DATA     BIT       SCON0_RI
      00000082H   SFRSYM    DATA     BYTE      DPL
      00000080H.1 SFRSYM    DATA     BIT       SCK
      00000088H.7 SFRSYM    DATA     BIT       TCON_TF1
      00000099H   SFRSYM    DATA     BYTE      SBUF0
      00000087H   SFRSYM    DATA     BYTE      PCON0
      000000C3H   SFRSYM    DATA     BYTE      ADC0GTL
      000000C8H.6 SFRSYM    DATA     BIT       TMR2CN0_TF2L
      00000098H.1 SFRSYM    DATA     BIT       SCON0_TI
      000000E8H   SFRSYM    DATA     BIT       ADC0CN0_ADCM0
      000000C6H   SFRSYM    DATA     BYTE      ADC0LTH
      00000088H   SFRSYM    DATA     BIT       TCON_IT0
      000000E8H.1 SFRSYM    DATA     BIT       ADC0CN0_ADCM1
      000000EFH   SFRSYM    DATA     BYTE      RSTSRC
      000000FDH   SFRSYM    DATA     BYTE      P0MAT
      000000DEH   SFRSYM    DATA     BYTE      CRC0DAT
      00000088H.2 SFRSYM    DATA     BIT       TCON_IT1
      000000E8H.2 SFRSYM    DATA     BIT       ADC0CN0_ADCM2
      00000098H   SFRSYM    DATA     BYTE      SCON0
      000000F6H   SFRSYM    DATA     BYTE      PRTDRV
      000000EDH   SFRSYM    DATA     BYTE      P1MAT
      000000E8H.3 SFRSYM    DATA     BIT       ADC0CN0_ADWINT
      000000E8H.4 SFRSYM    DATA     BIT       ADC0CN0_ADBUSY
      000000D6H   SFRSYM    DATA     BYTE      SMB0ADM
      000000C5H   SFRSYM    DATA     BYTE      ADC0LTL
      000000F8H.5 SFRSYM    DATA     BIT       SPI0CN0_MODF
      000000B8H.6 SFRSYM    DATA     BIT       IP_PSPI0
      0000009CH   SFRSYM    DATA     BYTE      PCA0CLR
      000000C8H   SFRSYM    DATA     BYTE      TMR2CN0
      00000091H   SFRSYM    DATA     BYTE      TMR3CN0
      000000A0H   SFRSYM    DATA     BIT       SER
      000000D7H   SFRSYM    DATA     BYTE      SMB0ADR
      00000088H.4 SFRSYM    DATA     BIT       TCON_TR0
LX51 LINKER/LOCATER V4.66.30.0                                                        04/06/2017  12:39:39  PAGE 58


      000000C8H.4 SFRSYM    DATA     BIT       TMR2CN0_TF2CEN
      00000088H.6 SFRSYM    DATA     BIT       TCON_TR1
      000000C2H   SFRSYM    DATA     BYTE      SMB0DAT
      000000CDH   SFRSYM    DATA     BYTE      TMR2H
      000000A1H   SFRSYM    DATA     BYTE      SPI0CFG
      00000095H   SFRSYM    DATA     BYTE      TMR3H
      000000D3H   SFRSYM    DATA     BYTE      CRC0CNT
      00000096H   SFRSYM    DATA     BYTE      PCA0POL
      000000CCH   SFRSYM    DATA     BYTE      TMR2L
      000000F8H.7 SFRSYM    DATA     BIT       SPI0CN0_SPIF
      00000094H   SFRSYM    DATA     BYTE      TMR3L
      000000DFH   SFRSYM    DATA     BYTE      ADC0PWR
      000000A8H.7 SFRSYM    DATA     BIT       IE_EA
      000000C8H.5 SFRSYM    DATA     BIT       TMR2CN0_TF2LEN
      000000F8H.6 SFRSYM    DATA     BIT       SPI0CN0_WCOL
      000000F8H.2 SFRSYM    DATA     BIT       SPI0CN0_NSSMD0
      000000D0H.7 SFRSYM    DATA     BIT       PSW_CY
      000000A3H   SFRSYM    DATA     BYTE      SPI0DAT
      000000F8H.3 SFRSYM    DATA     BIT       SPI0CN0_NSSMD1
      000000BDH   SFRSYM    DATA     WORD      ADC0
      000000D0H   SFRSYM    DATA     BYTE      PSW
      000000F7H   SFRSYM    DATA     BYTE      PCA0PWM
      000000B6H   SFRSYM    DATA     BYTE      REVID
      000000B7H   SFRSYM    DATA     BYTE      FLKEY
      000000B3H   SFRSYM    DATA     BYTE      ADC0AC
      01000EF1H   SYMBOL    CODE     ---       dealLock
      01001824H   SYMBOL    CONST    ---       _?ix1000
      01001656H   SYMBOL    CODE     ---       _getReadRelayStatus
      010010B2H   SYMBOL    CODE     ---       _setChannelStatusInLock
      01000C86H   SYMBOL    CODE     ---       dealJogging

      010017D7H   BLOCK     CODE     ---       LVL=0
      010017D7H   LINE      CODE     ---       #39
      010017D7H   LINE      CODE     ---       #40
      010017D7H   LINE      CODE     ---       #41
      010017DAH   LINE      CODE     ---       #42
      ---         BLOCKEND  ---      ---       LVL=0

      01000931H   BLOCK     CODE     ---       LVL=0
      01000931H   BLOCK     CODE     NEAR LAB  LVL=1
      00000021H   SYMBOL    DATA     DWORD     accumulator
      00000025H   SYMBOL    DATA     WORD      measure_cnt
      00000020H.2 SYMBOL    BIT      BIT       switch_ad_flag
      00000000H   SYMBOL    DATA     DWORD     result
      00000004H   SYMBOL    DATA     BYTE      i
      ---         BLOCKEND  ---      ---       LVL=1
      01000931H   LINE      CODE     ---       #45
      01000931H   LINE      CODE     ---       #46
      01000931H   LINE      CODE     ---       #50
      0100093AH   LINE      CODE     ---       #51
      0100093CH   LINE      CODE     ---       #52
      0100093EH   LINE      CODE     ---       #53
      01000958H   LINE      CODE     ---       #54
      01000960H   LINE      CODE     ---       #55
      0100096FH   LINE      CODE     ---       #56
      0100096FH   LINE      CODE     ---       #57
      01000974H   LINE      CODE     ---       #58
      0100098CH   LINE      CODE     ---       #59
      01000995H   LINE      CODE     ---       #60
      010009B8H   LINE      CODE     ---       #61
      010009BAH   LINE      CODE     ---       #62
      010009BDH   LINE      CODE     ---       #63
LX51 LINKER/LOCATER V4.66.30.0                                                        04/06/2017  12:39:39  PAGE 59


      010009C0H   LINE      CODE     ---       #64
      010009C0H   LINE      CODE     ---       #65
      010009E5H   LINE      CODE     ---       #66
      010009E5H   LINE      CODE     ---       #67
      010009FBH   LINE      CODE     ---       #68
      010009FCH   LINE      CODE     ---       #69
      010009FCH   LINE      CODE     ---       #70
      01000A04H   LINE      CODE     ---       #71
      01000A04H   LINE      CODE     ---       #72
      01000A0DH   LINE      CODE     ---       #73
      01000A0DH   LINE      CODE     ---       #74
      01000A12H   LINE      CODE     ---       #75
      01000A2AH   LINE      CODE     ---       #76
      01000A33H   LINE      CODE     ---       #77
      01000A56H   LINE      CODE     ---       #78
      01000A56H   LINE      CODE     ---       #79
      ---         BLOCKEND  ---      ---       LVL=0

      0100156AH   BLOCK     CODE     ---       LVL=0
      00000007H   SYMBOL    DATA     BYTE      index
      00000020H.3 SYMBOL    BIT      BIT       level
      0100156AH   LINE      CODE     ---       #81
      0100156AH   LINE      CODE     ---       #82
      0100156AH   LINE      CODE     ---       #83
      0100156DH   LINE      CODE     ---       #84
      0100156DH   LINE      CODE     ---       #85
      01001571H   LINE      CODE     ---       #86
      01001572H   LINE      CODE     ---       #87
      01001575H   LINE      CODE     ---       #88
      01001575H   LINE      CODE     ---       #89
      01001579H   LINE      CODE     ---       #90
      0100157AH   LINE      CODE     ---       #91
      0100157DH   LINE      CODE     ---       #92
      0100157DH   LINE      CODE     ---       #93
      01001581H   LINE      CODE     ---       #94
      01001582H   LINE      CODE     ---       #95
      01001585H   LINE      CODE     ---       #96
      01001585H   LINE      CODE     ---       #97
      01001589H   LINE      CODE     ---       #98
      01001589H   LINE      CODE     ---       #99
      ---         BLOCKEND  ---      ---       LVL=0

      01001656H   BLOCK     CODE     ---       LVL=0
      00000007H   SYMBOL    DATA     BYTE      index
      01001656H   LINE      CODE     ---       #100
      01001656H   LINE      CODE     ---       #101
      01001656H   LINE      CODE     ---       #102
      01001659H   LINE      CODE     ---       #103
      01001659H   LINE      CODE     ---       #104
      0100165EH   LINE      CODE     ---       #105
      0100165EH   LINE      CODE     ---       #106
      01001661H   LINE      CODE     ---       #107
      01001661H   LINE      CODE     ---       #108
      01001665H   LINE      CODE     ---       #109
      01001665H   LINE      CODE     ---       #110
      01001668H   LINE      CODE     ---       #111
      01001668H   LINE      CODE     ---       #112
      0100166CH   LINE      CODE     ---       #113
      0100166CH   LINE      CODE     ---       #115
      0100166CH   LINE      CODE     ---       #116
      01001671H   LINE      CODE     ---       #117
      01001671H   LINE      CODE     ---       #118
LX51 LINKER/LOCATER V4.66.30.0                                                        04/06/2017  12:39:39  PAGE 60


      ---         BLOCKEND  ---      ---       LVL=0

      01000C86H   BLOCK     CODE     ---       LVL=0
      01000C86H   BLOCK     CODE     NEAR LAB  LVL=1
      00000006H   SYMBOL    DATA     BYTE      i
      ---         BLOCKEND  ---      ---       LVL=1
      01000C86H   LINE      CODE     ---       #119
      01000C86H   LINE      CODE     ---       #120
      01000C86H   LINE      CODE     ---       #121
      01000C88H   LINE      CODE     ---       #122
      01000C88H   LINE      CODE     ---       #123
      01000C88H   LINE      CODE     ---       #124
      01000C97H   LINE      CODE     ---       #125
      01000CA7H   LINE      CODE     ---       #126
      01000CA7H   LINE      CODE     ---       #127
      01000CBCH   LINE      CODE     ---       #128
      01000CBCH   LINE      CODE     ---       #129
      01000CC8H   LINE      CODE     ---       #130
      01000CD2H   LINE      CODE     ---       #131
      01000CD5H   LINE      CODE     ---       #132
      01000D07H   LINE      CODE     ---       #135
      01000D07H   LINE      CODE     ---       #136
      01000D0EH   LINE      CODE     ---       #137
      01000D10H   LINE      CODE     ---       #138
      01000D38H   LINE      CODE     ---       #141
      01000D38H   LINE      CODE     ---       #142
      01000D3FH   LINE      CODE     ---       #143
      01000D49H   LINE      CODE     ---       #144
      01000D4BH   LINE      CODE     ---       #145
      01000D5FH   LINE      CODE     ---       #146
      01000D5FH   LINE      CODE     ---       #147
      01000D61H   LINE      CODE     ---       #148
      01000D61H   LINE      CODE     ---       #149
      01000D61H   LINE      CODE     ---       #150
      01000D6AH   LINE      CODE     ---       #151
      ---         BLOCKEND  ---      ---       LVL=0

      010010B2H   BLOCK     CODE     ---       LVL=0
      00000006H   SYMBOL    DATA     BYTE      index
      00000005H   SYMBOL    DATA     BYTE      lock_channel
      010010B2H   LINE      CODE     ---       #152
      010010B4H   LINE      CODE     ---       #153
      010010B4H   LINE      CODE     ---       #154
      010010DEH   LINE      CODE     ---       #155
      010010DEH   LINE      CODE     ---       #156
      010010E5H   LINE      CODE     ---       #157
      010010E5H   LINE      CODE     ---       #158
      01001111H   LINE      CODE     ---       #159
      01001111H   LINE      CODE     ---       #160
      01001118H   LINE      CODE     ---       #161
      01001124H   LINE      CODE     ---       #162
      01001124H   LINE      CODE     ---       #163
      ---         BLOCKEND  ---      ---       LVL=0

      01000EF1H   BLOCK     CODE     ---       LVL=0
      01000EF1H   BLOCK     CODE     NEAR LAB  LVL=1
      00000027H   SYMBOL    DATA     BYTE      lock_channel
      00000028H   SYMBOL    DATA     BYTE      last_lock_channel
      020000A1H   SYMBOL    XDATA    ---       last_relay_val
      020000A5H   SYMBOL    XDATA    ---       relay_val
      00000001H   SYMBOL    DATA     BYTE      i
      ---         BLOCKEND  ---      ---       LVL=1
LX51 LINKER/LOCATER V4.66.30.0                                                        04/06/2017  12:39:39  PAGE 61


      01000EF1H   LINE      CODE     ---       #164
      01000EF1H   LINE      CODE     ---       #165
      01000EF1H   LINE      CODE     ---       #169
      01000F04H   LINE      CODE     ---       #170
      01000F06H   LINE      CODE     ---       #171
      01000F0DH   LINE      CODE     ---       #172
      01000F13H   LINE      CODE     ---       #173
      01000F19H   LINE      CODE     ---       #174
      01000F1FH   LINE      CODE     ---       #175
      01000F1FH   LINE      CODE     ---       #176
      01000F1FH   LINE      CODE     ---       #177
      01000F3EH   LINE      CODE     ---       #178
      01000F3EH   LINE      CODE     ---       #179
      01000F42H   LINE      CODE     ---       #181
      01000F42H   LINE      CODE     ---       #182
      01000F5AH   LINE      CODE     ---       #183
      01000F69H   LINE      CODE     ---       #184
      01000F6DH   LINE      CODE     ---       #186
      01000F73H   LINE      CODE     ---       #187
      01000F73H   LINE      CODE     ---       #188
      01000F75H   LINE      CODE     ---       #189
      01000F75H   LINE      CODE     ---       #190
      01000F81H   LINE      CODE     ---       #191
      01000F85H   LINE      CODE     ---       #192
      01000F88H   LINE      CODE     ---       #193
      01000F88H   LINE      CODE     ---       #194
      01000F8AH   LINE      CODE     ---       #195
      01000F8AH   LINE      CODE     ---       #196
      01000F91H   LINE      CODE     ---       #197
      01000F95H   LINE      CODE     ---       #198
      ---         BLOCKEND  ---      ---       LVL=0

      01001706H   BLOCK     CODE     ---       LVL=0
      01001706H   LINE      CODE     ---       #199
      01001706H   LINE      CODE     ---       #200
      01001706H   LINE      CODE     ---       #201
      0100170BH   LINE      CODE     ---       #202
      0100170BH   LINE      CODE     ---       #203
      0100170EH   LINE      CODE     ---       #204
      0100170EH   LINE      CODE     ---       #206
      0100170EH   LINE      CODE     ---       #207
      01001711H   LINE      CODE     ---       #208
      01001711H   LINE      CODE     ---       #209
      ---         BLOCKEND  ---      ---       LVL=0

      ---         MODULE    ---      ---       WIRELESS
      010012F9H   PUBLIC    CODE     ---       wireless_scan
      010016DFH   PUBLIC    CODE     ---       decode
      01000F96H   PUBLIC    CODE     ---       _decodeWireless
      0100132AH   PUBLIC    CODE     ---       savaParamtoFlash
      000000A2H   SFRSYM    DATA     BYTE      SPI0CKR
      00000080H   SFRSYM    DATA     BYTE      P0
      000000D0H.2 SFRSYM    DATA     BIT       PSW_OV
      00000090H   SFRSYM    DATA     BYTE      P1
      00000097H   SFRSYM    DATA     BYTE      WDTCN
      000000A0H   SFRSYM    DATA     BYTE      P2
      000000BCH   SFRSYM    DATA     BYTE      ADC0CF
      000000C8H   SFRSYM    DATA     BIT       TMR2CN0_T2XCLK
      000000C0H.7 SFRSYM    DATA     BIT       SMB0CN0_MASTER
      000000F9H   SFRSYM    DATA     WORD      PCA0
      000000E6H   SFRSYM    DATA     BYTE      EIE1
      000000C0H.1 SFRSYM    DATA     BIT       SMB0CN0_ACK
LX51 LINKER/LOCATER V4.66.30.0                                                        04/06/2017  12:39:39  PAGE 62


      0000008FH   SFRSYM    DATA     BYTE      PSCTL
      000000E4H   SFRSYM    DATA     BYTE      IT01CF
      000000C0H.6 SFRSYM    DATA     BIT       SMB0CN0_TXMODE
      000000ADH   SFRSYM    DATA     BYTE      DERIVID
      000000A4H   SFRSYM    DATA     BYTE      P0MDOUT
      000000A5H   SFRSYM    DATA     BYTE      P1MDOUT
      000000E8H.5 SFRSYM    DATA     BIT       ADC0CN0_ADINT
      000000CBH   SFRSYM    DATA     BYTE      TMR2RLH
      000000A6H   SFRSYM    DATA     BYTE      P2MDOUT
      000000A8H   SFRSYM    DATA     BYTE      IE
      00000093H   SFRSYM    DATA     BYTE      TMR3RLH
      000000F3H   SFRSYM    DATA     BYTE      EIP1
      00000098H.2 SFRSYM    DATA     BIT       SCON0_RB8
      000000CAH   SFRSYM    DATA     BYTE      TMR2RLL
      000000FCH   SFRSYM    DATA     BYTE      PCA0CPH0
      00000092H   SFRSYM    DATA     BYTE      TMR3RLL
      000000EAH   SFRSYM    DATA     BYTE      PCA0CPH1
      00000098H.3 SFRSYM    DATA     BIT       SCON0_TB8
      000000F0H   SFRSYM    DATA     BIT       B_B0
      00000082H   SFRSYM    DATA     WORD      DP
      000000ECH   SFRSYM    DATA     BYTE      PCA0CPH2
      000000F0H.1 SFRSYM    DATA     BIT       B_B1
      000000C3H   SFRSYM    DATA     WORD      ADC0GT
      000000F0H.2 SFRSYM    DATA     BIT       B_B2
      000000FBH   SFRSYM    DATA     BYTE      PCA0CPL0
      000000F0H.3 SFRSYM    DATA     BIT       B_B3
      000000D9H   SFRSYM    DATA     BYTE      PCA0MD
      000000DAH   SFRSYM    DATA     BYTE      PCA0CPM0
      000000E9H   SFRSYM    DATA     BYTE      PCA0CPL1
      000000F0H.4 SFRSYM    DATA     BIT       B_B4
      000000DBH   SFRSYM    DATA     BYTE      PCA0CPM1
      000000EBH   SFRSYM    DATA     BYTE      PCA0CPL2
      000000F0H.5 SFRSYM    DATA     BIT       B_B5
      000000DCH   SFRSYM    DATA     BYTE      PCA0CPM2
      000000B8H   SFRSYM    DATA     BYTE      IP
      000000B9H   SFRSYM    DATA     BYTE      ADC0TK
      000000F0H.6 SFRSYM    DATA     BIT       B_B6
      000000C5H   SFRSYM    DATA     WORD      ADC0LT
      00000098H.5 SFRSYM    DATA     BIT       SCON0_MCE
      000000F0H.7 SFRSYM    DATA     BIT       B_B7
      000000E1H   SFRSYM    DATA     BYTE      XBR0
      000000C1H   SFRSYM    DATA     BYTE      SMB0CF
      000000E2H   SFRSYM    DATA     BYTE      XBR1
      000000C0H.5 SFRSYM    DATA     BIT       SMB0CN0_STA
      000000E3H   SFRSYM    DATA     BYTE      XBR2
      000000BBH   SFRSYM    DATA     BYTE      ADC0MX
      000000E0H   SFRSYM    DATA     BIT       ACC_ACC0
      000000D1H   SFRSYM    DATA     BYTE      REF0CN
      0000008EH   SFRSYM    DATA     BYTE      CKCON0
      000000E0H.1 SFRSYM    DATA     BIT       ACC_ACC1
      000000C9H   SFRSYM    DATA     BYTE      REG0CN
      000000DDH   SFRSYM    DATA     BYTE      CRC0IN
      000000C8H.2 SFRSYM    DATA     BIT       TMR2CN0_TR2
      000000E0H.2 SFRSYM    DATA     BIT       ACC_ACC2
      000000E0H.3 SFRSYM    DATA     BIT       ACC_ACC3
      00000081H   SFRSYM    DATA     BYTE      SP
      0000009DH   SFRSYM    DATA     BYTE      CMP0MD
      000000E0H.4 SFRSYM    DATA     BIT       ACC_ACC4
      000000B1H   SFRSYM    DATA     BYTE      LFO0CN
      000000ABH   SFRSYM    DATA     BYTE      CMP1MD
      000000D8H   SFRSYM    DATA     BIT       PCA0CN0_CCF0
      000000E0H.5 SFRSYM    DATA     BIT       ACC_ACC5
LX51 LINKER/LOCATER V4.66.30.0                                                        04/06/2017  12:39:39  PAGE 63


      000000D8H.1 SFRSYM    DATA     BIT       PCA0CN0_CCF1
      000000E0H.6 SFRSYM    DATA     BIT       ACC_ACC6
      000000CCH   SFRSYM    DATA     WORD      TMR2
      000000D8H.2 SFRSYM    DATA     BIT       PCA0CN0_CCF2
      000000E0H.7 SFRSYM    DATA     BIT       ACC_ACC7
      00000094H   SFRSYM    DATA     WORD      TMR3
      000000C0H.3 SFRSYM    DATA     BIT       SMB0CN0_ACKRQ
      000000FFH   SFRSYM    DATA     BYTE      VDM0CN
      000000F1H   SFRSYM    DATA     BYTE      P0MDIN
      00000098H.4 SFRSYM    DATA     BIT       SCON0_REN
      000000ACH   SFRSYM    DATA     BYTE      SMB0TC
      000000F2H   SFRSYM    DATA     BYTE      P1MDIN
      000000C0H.4 SFRSYM    DATA     BIT       SMB0CN0_STO
      000000FEH   SFRSYM    DATA     BYTE      P0MASK
      000000EEH   SFRSYM    DATA     BYTE      P1MASK
      000000D0H.3 SFRSYM    DATA     BIT       PSW_RS0
      000000D8H.7 SFRSYM    DATA     BIT       PCA0CN0_CF
      0000009EH   SFRSYM    DATA     BYTE      PCA0CENT
      000000F8H.4 SFRSYM    DATA     BIT       SPI0CN0_RXOVRN
      000000D0H.4 SFRSYM    DATA     BIT       PSW_RS1
      000000E8H.7 SFRSYM    DATA     BIT       ADC0CN0_ADEN
      00000089H   SFRSYM    DATA     BYTE      TMOD
      00000088H   SFRSYM    DATA     BYTE      TCON
      000000CFH   SFRSYM    DATA     BYTE      CRC0FLIP
      000000D0H   SFRSYM    DATA     BIT       PSW_PARITY
      000000A8H.4 SFRSYM    DATA     BIT       IE_ES0
      0000009FH   SFRSYM    DATA     BYTE      CMP0MX
      000000A8H.1 SFRSYM    DATA     BIT       IE_ET0
      000000AAH   SFRSYM    DATA     BYTE      CMP1MX
      000000A8H.3 SFRSYM    DATA     BIT       IE_ET1
      000000D4H   SFRSYM    DATA     BYTE      P0SKIP
      00000090H.2 SFRSYM    DATA     BIT       WIRELESS_PIN
      000000A8H.5 SFRSYM    DATA     BIT       IE_ET2
      000000D5H   SFRSYM    DATA     BYTE      P1SKIP
      000000E8H   SFRSYM    DATA     BYTE      ADC0CN0
      000000A8H   SFRSYM    DATA     BIT       IE_EX0
      000000B2H   SFRSYM    DATA     BYTE      ADC0CN1
      000000D8H.6 SFRSYM    DATA     BIT       PCA0CN0_CR
      000000A8H.2 SFRSYM    DATA     BIT       IE_EX1
      00000098H.7 SFRSYM    DATA     BIT       SCON0_SMODE
      000000B5H   SFRSYM    DATA     BYTE      DEVICEID
      000000A9H   SFRSYM    DATA     BYTE      CLKSEL
      000000F8H   SFRSYM    DATA     BIT       SPI0CN0_SPIEN
      000000F0H   SFRSYM    DATA     BYTE      B
      000000BEH   SFRSYM    DATA     BYTE      ADC0H
      000000D2H   SFRSYM    DATA     BYTE      CRC0AUTO
      000000E8H.6 SFRSYM    DATA     BIT       ADC0CN0_ADBMEN
      000000CAH   SFRSYM    DATA     WORD      TMR2RL
      000000BDH   SFRSYM    DATA     BYTE      ADC0L
      00000092H   SFRSYM    DATA     WORD      TMR3RL
      000000D8H   SFRSYM    DATA     BYTE      PCA0CN0
      000000E0H   SFRSYM    DATA     BYTE      ACC
      000000FBH   SFRSYM    DATA     WORD      PCA0CP0
      000000E9H   SFRSYM    DATA     WORD      PCA0CP1
      000000EBH   SFRSYM    DATA     WORD      PCA0CP2
      000000CEH   SFRSYM    DATA     BYTE      CRC0CN0
      0000008CH   SFRSYM    DATA     BYTE      TH0
      000000B8H.4 SFRSYM    DATA     BIT       IP_PS0
      0000008DH   SFRSYM    DATA     BYTE      TH1
      000000FAH   SFRSYM    DATA     BYTE      PCA0H
      000000B8H.1 SFRSYM    DATA     BIT       IP_PT0
      000000B8H.3 SFRSYM    DATA     BIT       IP_PT1
LX51 LINKER/LOCATER V4.66.30.0                                                        04/06/2017  12:39:39  PAGE 64


      000000C0H.2 SFRSYM    DATA     BIT       SMB0CN0_ARBLOST
      000000B8H.5 SFRSYM    DATA     BIT       IP_PT2
      0000008AH   SFRSYM    DATA     BYTE      TL0
      000000F8H.1 SFRSYM    DATA     BIT       SPI0CN0_TXBMT
      000000D0H.5 SFRSYM    DATA     BIT       PSW_F0
      000000A8H.6 SFRSYM    DATA     BIT       IE_ESPI0
      0000008BH   SFRSYM    DATA     BYTE      TL1
      000000F9H   SFRSYM    DATA     BYTE      PCA0L
      000000C0H   SFRSYM    DATA     BIT       SMB0CN0_SI
      000000D0H.1 SFRSYM    DATA     BIT       PSW_F1
      00000080H   SFRSYM    DATA     BIT       P0_B0
      000000B8H   SFRSYM    DATA     BIT       IP_PX0
      00000090H   SFRSYM    DATA     BIT       P1_B0
      00000080H.1 SFRSYM    DATA     BIT       P0_B1
      000000B8H.2 SFRSYM    DATA     BIT       IP_PX1
      0000009BH   SFRSYM    DATA     BYTE      CMP0CN0
      00000088H.1 SFRSYM    DATA     BIT       TCON_IE0
      000000A0H   SFRSYM    DATA     BIT       P2_B0
      00000090H.1 SFRSYM    DATA     BIT       P1_B1
      00000080H.2 SFRSYM    DATA     BIT       P0_B2
      000000BFH   SFRSYM    DATA     BYTE      CMP1CN0
      00000088H.3 SFRSYM    DATA     BIT       TCON_IE1
      000000A0H.1 SFRSYM    DATA     BIT       P2_B1
      00000090H.2 SFRSYM    DATA     BIT       P1_B2
      00000080H.3 SFRSYM    DATA     BIT       P0_B3
      000000C0H   SFRSYM    DATA     BYTE      SMB0CN0
      00000090H.3 SFRSYM    DATA     BIT       P1_B3
      00000080H.4 SFRSYM    DATA     BIT       P0_B4
      00000090H.4 SFRSYM    DATA     BIT       P1_B4
      00000080H.5 SFRSYM    DATA     BIT       P0_B5
      00000090H.5 SFRSYM    DATA     BIT       P1_B5
      00000080H.6 SFRSYM    DATA     BIT       P0_B6
      00000090H.6 SFRSYM    DATA     BIT       P1_B6
      00000080H.7 SFRSYM    DATA     BIT       P0_B7
      00000090H.7 SFRSYM    DATA     BIT       P1_B7
      00000083H   SFRSYM    DATA     BYTE      DPH
      000000C4H   SFRSYM    DATA     BYTE      ADC0GTH
      000000C8H.7 SFRSYM    DATA     BIT       TMR2CN0_TF2H
      000000C8H.3 SFRSYM    DATA     BIT       TMR2CN0_T2SPLIT
      000000D0H.6 SFRSYM    DATA     BIT       PSW_AC
      000000F8H   SFRSYM    DATA     BYTE      SPI0CN0
      000000C7H   SFRSYM    DATA     BYTE      HFO0CAL
      00000080H   SFRSYM    DATA     BIT       RCK
      00000088H.5 SFRSYM    DATA     BIT       TCON_TF0
      00000098H   SFRSYM    DATA     BIT       SCON0_RI
      00000082H   SFRSYM    DATA     BYTE      DPL
      00000080H.1 SFRSYM    DATA     BIT       SCK
      00000088H.7 SFRSYM    DATA     BIT       TCON_TF1
      00000099H   SFRSYM    DATA     BYTE      SBUF0
      00000087H   SFRSYM    DATA     BYTE      PCON0
      000000C3H   SFRSYM    DATA     BYTE      ADC0GTL
      000000C8H.6 SFRSYM    DATA     BIT       TMR2CN0_TF2L
      00000098H.1 SFRSYM    DATA     BIT       SCON0_TI
      000000E8H   SFRSYM    DATA     BIT       ADC0CN0_ADCM0
      000000C6H   SFRSYM    DATA     BYTE      ADC0LTH
      00000088H   SFRSYM    DATA     BIT       TCON_IT0
      000000E8H.1 SFRSYM    DATA     BIT       ADC0CN0_ADCM1
      000000EFH   SFRSYM    DATA     BYTE      RSTSRC
      000000FDH   SFRSYM    DATA     BYTE      P0MAT
      000000DEH   SFRSYM    DATA     BYTE      CRC0DAT
      00000088H.2 SFRSYM    DATA     BIT       TCON_IT1
      000000E8H.2 SFRSYM    DATA     BIT       ADC0CN0_ADCM2
LX51 LINKER/LOCATER V4.66.30.0                                                        04/06/2017  12:39:39  PAGE 65


      00000098H   SFRSYM    DATA     BYTE      SCON0
      000000F6H   SFRSYM    DATA     BYTE      PRTDRV
      000000EDH   SFRSYM    DATA     BYTE      P1MAT
      000000E8H.3 SFRSYM    DATA     BIT       ADC0CN0_ADWINT
      000000E8H.4 SFRSYM    DATA     BIT       ADC0CN0_ADBUSY
      000000D6H   SFRSYM    DATA     BYTE      SMB0ADM
      000000C5H   SFRSYM    DATA     BYTE      ADC0LTL
      000000F8H.5 SFRSYM    DATA     BIT       SPI0CN0_MODF
      000000B8H.6 SFRSYM    DATA     BIT       IP_PSPI0
      0000009CH   SFRSYM    DATA     BYTE      PCA0CLR
      000000C8H   SFRSYM    DATA     BYTE      TMR2CN0
      00000091H   SFRSYM    DATA     BYTE      TMR3CN0
      000000A0H   SFRSYM    DATA     BIT       SER
      000000D7H   SFRSYM    DATA     BYTE      SMB0ADR
      00000088H.4 SFRSYM    DATA     BIT       TCON_TR0
      000000C8H.4 SFRSYM    DATA     BIT       TMR2CN0_TF2CEN
      00000088H.6 SFRSYM    DATA     BIT       TCON_TR1
      000000C2H   SFRSYM    DATA     BYTE      SMB0DAT
      000000CDH   SFRSYM    DATA     BYTE      TMR2H
      000000A1H   SFRSYM    DATA     BYTE      SPI0CFG
      00000095H   SFRSYM    DATA     BYTE      TMR3H
      000000D3H   SFRSYM    DATA     BYTE      CRC0CNT
      00000096H   SFRSYM    DATA     BYTE      PCA0POL
      000000CCH   SFRSYM    DATA     BYTE      TMR2L
      000000F8H.7 SFRSYM    DATA     BIT       SPI0CN0_SPIF
      00000094H   SFRSYM    DATA     BYTE      TMR3L
      000000DFH   SFRSYM    DATA     BYTE      ADC0PWR
      000000A8H.7 SFRSYM    DATA     BIT       IE_EA
      000000C8H.5 SFRSYM    DATA     BIT       TMR2CN0_TF2LEN
      000000F8H.6 SFRSYM    DATA     BIT       SPI0CN0_WCOL
      000000F8H.2 SFRSYM    DATA     BIT       SPI0CN0_NSSMD0
      000000D0H.7 SFRSYM    DATA     BIT       PSW_CY
      000000A3H   SFRSYM    DATA     BYTE      SPI0DAT
      000000F8H.3 SFRSYM    DATA     BIT       SPI0CN0_NSSMD1
      000000BDH   SFRSYM    DATA     WORD      ADC0
      000000D0H   SFRSYM    DATA     BYTE      PSW
      000000F7H   SFRSYM    DATA     BYTE      PCA0PWM
      000000B6H   SFRSYM    DATA     BYTE      REVID
      000000B7H   SFRSYM    DATA     BYTE      FLKEY
      000000B3H   SFRSYM    DATA     BYTE      ADC0AC
      010007BEH   SYMBOL    CODE     ---       _wirelessStudy
      02000092H   SYMBOL    XDATA    ---       dev_params
      01000E31H   SYMBOL    CODE     ---       wirelessAction
      0200009EH   SYMBOL    XDATA    ---       decode_data
      00000020H.1 SYMBOL    BIT      BIT       wireless_flag

      0100132AH   BLOCK     CODE     ---       LVL=0
      0100132AH   BLOCK     CODE     NEAR LAB  LVL=1
      0000000CH   SYMBOL    DATA     BYTE      i
      ---         BLOCKEND  ---      ---       LVL=1
      0100132AH   LINE      CODE     ---       #16
      0100132AH   LINE      CODE     ---       #17
      0100132AH   LINE      CODE     ---       #18
      0100132DH   LINE      CODE     ---       #19
      01001333H   LINE      CODE     ---       #20
      01001336H   LINE      CODE     ---       #21
      01001336H   LINE      CODE     ---       #22
      0100134EH   LINE      CODE     ---       #23
      01001357H   LINE      CODE     ---       #25
      ---         BLOCKEND  ---      ---       LVL=0

      01000F96H   BLOCK     CODE     ---       LVL=0
LX51 LINKER/LOCATER V4.66.30.0                                                        04/06/2017  12:39:39  PAGE 66


      00000001H   SYMBOL    DATA     ---       decode_data
      01000F96H   BLOCK     CODE     NEAR LAB  LVL=1
      00000020H.0 SYMBOL    BIT      BIT       syn_flag
      00000013H   SYMBOL    DATA     BYTE      bit_cnt
      00000014H   SYMBOL    DATA     BYTE      low_cnt
      00000015H   SYMBOL    DATA     BYTE      high_cnt
      00000016H   SYMBOL    DATA     BYTE      temp_val
      00000007H   SYMBOL    DATA     BYTE      index
      ---         BLOCKEND  ---      ---       LVL=1
      01000F96H   LINE      CODE     ---       #26
      01000F96H   LINE      CODE     ---       #27
      01000F96H   LINE      CODE     ---       #33
      01000F96H   LINE      CODE     ---       #34
      01000F99H   LINE      CODE     ---       #35
      01000F99H   LINE      CODE     ---       #36
      01000F9CH   LINE      CODE     ---       #37
      01000F9CH   LINE      CODE     ---       #38
      01000F9EH   LINE      CODE     ---       #39
      01000F9EH   LINE      CODE     ---       #40
      01000FA1H   LINE      CODE     ---       #41
      01000FA1H   LINE      CODE     ---       #42
      01000FAEH   LINE      CODE     ---       #43
      01000FAEH   LINE      CODE     ---       #44
      01000FB0H   LINE      CODE     ---       #45
      01000FB0H   LINE      CODE     ---       #46
      01000FB3H   LINE      CODE     ---       #47
      01000FB3H   LINE      CODE     ---       #48
      01000FB3H   LINE      CODE     ---       #49
      01000FB6H   LINE      CODE     ---       #50
      01000FB6H   LINE      CODE     ---       #51
      01000FB9H   LINE      CODE     ---       #52
      01000FB9H   LINE      CODE     ---       #53
      01000FBBH   LINE      CODE     ---       #54
      01000FBDH   LINE      CODE     ---       #56
      01000FBDH   LINE      CODE     ---       #57
      01000FCAH   LINE      CODE     ---       #58
      01000FCAH   LINE      CODE     ---       #59
      01000FCCH   LINE      CODE     ---       #60
      01000FD4H   LINE      CODE     ---       #61
      01000FD6H   LINE      CODE     ---       #62
      01000FE3H   LINE      CODE     ---       #63
      01000FE3H   LINE      CODE     ---       #64
      01000FE5H   LINE      CODE     ---       #65
      01000FEBH   LINE      CODE     ---       #66
      01000FEDH   LINE      CODE     ---       #67
      01000FF4H   LINE      CODE     ---       #68
      01000FF4H   LINE      CODE     ---       #69
      01000FF6H   LINE      CODE     ---       #70
      01000FF9H   LINE      CODE     ---       #71
      01000FFBH   LINE      CODE     ---       #72
      01000FFBH   LINE      CODE     ---       #73
      01000FFEH   LINE      CODE     ---       #74
      01001006H   LINE      CODE     ---       #75
      01001006H   LINE      CODE     ---       #76
      0100100EH   LINE      CODE     ---       #77
      01001018H   LINE      CODE     ---       #78
      0100101DH   LINE      CODE     ---       #79
      0100101DH   LINE      CODE     ---       #80
      0100101FH   LINE      CODE     ---       #81
      01001022H   LINE      CODE     ---       #82
      01001024H   LINE      CODE     ---       #83
      01001024H   LINE      CODE     ---       #84
LX51 LINKER/LOCATER V4.66.30.0                                                        04/06/2017  12:39:39  PAGE 67


      01001024H   LINE      CODE     ---       #85
      01001024H   LINE      CODE     ---       #86
      01001024H   LINE      CODE     ---       #87
      01001025H   LINE      CODE     ---       #88
      ---         BLOCKEND  ---      ---       LVL=0

      010016DFH   BLOCK     CODE     ---       LVL=0
      010016DFH   LINE      CODE     ---       #90
      010016DFH   LINE      CODE     ---       #91
      010016DFH   LINE      CODE     ---       #92
      010016EAH   LINE      CODE     ---       #93
      010016EAH   LINE      CODE     ---       #95
      010016ECH   LINE      CODE     ---       #96
      010016ECH   LINE      CODE     ---       #97
      ---         BLOCKEND  ---      ---       LVL=0

      010007BEH   BLOCK     CODE     ---       LVL=0
      00000006H   SYMBOL    DATA     BYTE      index
      010007C0H   BLOCK     CODE     NEAR LAB  LVL=1
      00000007H   SYMBOL    DATA     BYTE      i
      00000008H   SYMBOL    DATA     DWORD     temp_val
      ---         BLOCKEND  ---      ---       LVL=1
      010007BEH   LINE      CODE     ---       #98
      010007C0H   LINE      CODE     ---       #99
      010007C0H   LINE      CODE     ---       #100
      010007C3H   LINE      CODE     ---       #101
      010007CBH   LINE      CODE     ---       #102
      010007D7H   LINE      CODE     ---       #103
      010007D7H   LINE      CODE     ---       #104
      010007F3H   LINE      CODE     ---       #106
      010007FEH   LINE      CODE     ---       #107
      010007FFH   LINE      CODE     ---       #109
      010007FFH   LINE      CODE     ---       #110
      01000807H   LINE      CODE     ---       #111
      01000807H   LINE      CODE     ---       #112
      0100082CH   LINE      CODE     ---       #114
      0100082CH   LINE      CODE     ---       #115
      01000835H   LINE      CODE     ---       #116
      01000835H   LINE      CODE     ---       #117
      01000867H   LINE      CODE     ---       #118
      01000881H   LINE      CODE     ---       #119
      01000881H   LINE      CODE     ---       #120
      0100088EH   LINE      CODE     ---       #121
      0100089BH   LINE      CODE     ---       #122
      010008A8H   LINE      CODE     ---       #123
      010008AAH   LINE      CODE     ---       #124
      010008AAH   LINE      CODE     ---       #125
      010008B3H   LINE      CODE     ---       #126
      010008C9H   LINE      CODE     ---       #127
      010008DFH   LINE      CODE     ---       #128
      010008F5H   LINE      CODE     ---       #131
      010008F8H   LINE      CODE     ---       #132
      01000903H   LINE      CODE     ---       #133
      01000915H   LINE      CODE     ---       #134
      01000915H   LINE      CODE     ---       #135
      01000920H   LINE      CODE     ---       #136
      01000930H   LINE      CODE     ---       #137
      01000930H   LINE      CODE     ---       #138
      01000930H   LINE      CODE     ---       #139
      ---         BLOCKEND  ---      ---       LVL=0

      01000E31H   BLOCK     CODE     ---       LVL=0
LX51 LINKER/LOCATER V4.66.30.0                                                        04/06/2017  12:39:39  PAGE 68


      01000E31H   BLOCK     CODE     NEAR LAB  LVL=1
      00000006H   SYMBOL    DATA     BYTE      i
      00000007H   SYMBOL    DATA     DWORD     temp_val
      ---         BLOCKEND  ---      ---       LVL=1
      01000E31H   LINE      CODE     ---       #140
      01000E31H   LINE      CODE     ---       #141
      01000E31H   LINE      CODE     ---       #142
      01000E34H   LINE      CODE     ---       #143
      01000E3CH   LINE      CODE     ---       #144
      01000E3FH   LINE      CODE     ---       #145
      01000E3FH   LINE      CODE     ---       #146
      01000E4BH   LINE      CODE     ---       #147
      01000E4BH   LINE      CODE     ---       #148
      01000E8DH   LINE      CODE     ---       #151
      01000E8DH   LINE      CODE     ---       #152
      01000EA0H   LINE      CODE     ---       #154
      01000EA6H   LINE      CODE     ---       #155
      01000EA6H   LINE      CODE     ---       #156
      01000EABH   LINE      CODE     ---       #157
      01000EABH   LINE      CODE     ---       #159
      01000EB0H   LINE      CODE     ---       #160
      01000EB0H   LINE      CODE     ---       #161
      01000EB0H   LINE      CODE     ---       #162
      01000EB8H   LINE      CODE     ---       #163
      01000EB8H   LINE      CODE     ---       #165
      01000EB8H   LINE      CODE     ---       #166
      01000EBBH   LINE      CODE     ---       #167
      01000EBBH   LINE      CODE     ---       #168
      01000ECDH   LINE      CODE     ---       #169
      01000ECDH   LINE      CODE     ---       #170
      01000EDAH   LINE      CODE     ---       #172
      01000EE0H   LINE      CODE     ---       #173
      01000EE0H   LINE      CODE     ---       #174
      01000EE7H   LINE      CODE     ---       #175
      01000EE7H   LINE      CODE     ---       #176
      01000EE7H   LINE      CODE     ---       #177
      01000EF0H   LINE      CODE     ---       #178
      01000EF0H   LINE      CODE     ---       #179
      ---         BLOCKEND  ---      ---       LVL=0

      010012F9H   BLOCK     CODE     ---       LVL=0
      010012F9H   BLOCK     CODE     NEAR LAB  LVL=1
      00000005H   SYMBOL    DATA     BYTE      i
      ---         BLOCKEND  ---      ---       LVL=1
      010012F9H   LINE      CODE     ---       #180
      010012F9H   LINE      CODE     ---       #181
      010012F9H   LINE      CODE     ---       #182
      010012FCH   LINE      CODE     ---       #183
      010012FEH   LINE      CODE     ---       #184
      010012FEH   LINE      CODE     ---       #185
      01001313H   LINE      CODE     ---       #188
      01001313H   LINE      CODE     ---       #189
      01001318H   LINE      CODE     ---       #190
      0100131BH   LINE      CODE     ---       #192
      0100131BH   LINE      CODE     ---       #193
      01001324H   LINE      CODE     ---       #194
      01001327H   LINE      CODE     ---       #195
      01001329H   LINE      CODE     ---       #196
      ---         BLOCKEND  ---      ---       LVL=0

      ---         MODULE    ---      ---       KEY_DRIVER
      02000060H   PUBLIC    XDATA    ---       keys_ctl
LX51 LINKER/LOCATER V4.66.30.0                                                        04/06/2017  12:39:39  PAGE 69


      02000000H   PUBLIC    XDATA    ---       keys_dev
      01000003H   PUBLIC    CODE     ---       keyScan
      0000000DH   PUBLIC    DATA     BYTE      ?_keyRegisterSingle?BYTE
      01000D6BH   PUBLIC    CODE     ---       _keyRegisterSingle
      000000A2H   SFRSYM    DATA     BYTE      SPI0CKR
      00000080H   SFRSYM    DATA     BYTE      P0
      000000D0H.2 SFRSYM    DATA     BIT       PSW_OV
      00000090H   SFRSYM    DATA     BYTE      P1
      00000097H   SFRSYM    DATA     BYTE      WDTCN
      000000A0H   SFRSYM    DATA     BYTE      P2
      000000BCH   SFRSYM    DATA     BYTE      ADC0CF
      000000C8H   SFRSYM    DATA     BIT       TMR2CN0_T2XCLK
      000000C0H.7 SFRSYM    DATA     BIT       SMB0CN0_MASTER
      000000F9H   SFRSYM    DATA     WORD      PCA0
      000000E6H   SFRSYM    DATA     BYTE      EIE1
      000000C0H.1 SFRSYM    DATA     BIT       SMB0CN0_ACK
      0000008FH   SFRSYM    DATA     BYTE      PSCTL
      000000E4H   SFRSYM    DATA     BYTE      IT01CF
      000000C0H.6 SFRSYM    DATA     BIT       SMB0CN0_TXMODE
      000000ADH   SFRSYM    DATA     BYTE      DERIVID
      000000A4H   SFRSYM    DATA     BYTE      P0MDOUT
      000000A5H   SFRSYM    DATA     BYTE      P1MDOUT
      000000E8H.5 SFRSYM    DATA     BIT       ADC0CN0_ADINT
      000000CBH   SFRSYM    DATA     BYTE      TMR2RLH
      000000A6H   SFRSYM    DATA     BYTE      P2MDOUT
      000000A8H   SFRSYM    DATA     BYTE      IE
      00000093H   SFRSYM    DATA     BYTE      TMR3RLH
      000000F3H   SFRSYM    DATA     BYTE      EIP1
      00000098H.2 SFRSYM    DATA     BIT       SCON0_RB8
      000000CAH   SFRSYM    DATA     BYTE      TMR2RLL
      000000FCH   SFRSYM    DATA     BYTE      PCA0CPH0
      00000092H   SFRSYM    DATA     BYTE      TMR3RLL
      000000EAH   SFRSYM    DATA     BYTE      PCA0CPH1
      00000098H.3 SFRSYM    DATA     BIT       SCON0_TB8
      000000F0H   SFRSYM    DATA     BIT       B_B0
      00000082H   SFRSYM    DATA     WORD      DP
      000000ECH   SFRSYM    DATA     BYTE      PCA0CPH2
      000000F0H.1 SFRSYM    DATA     BIT       B_B1
      000000C3H   SFRSYM    DATA     WORD      ADC0GT
      000000F0H.2 SFRSYM    DATA     BIT       B_B2
      000000FBH   SFRSYM    DATA     BYTE      PCA0CPL0
      000000F0H.3 SFRSYM    DATA     BIT       B_B3
      000000D9H   SFRSYM    DATA     BYTE      PCA0MD
      000000DAH   SFRSYM    DATA     BYTE      PCA0CPM0
      000000E9H   SFRSYM    DATA     BYTE      PCA0CPL1
      000000F0H.4 SFRSYM    DATA     BIT       B_B4
      000000DBH   SFRSYM    DATA     BYTE      PCA0CPM1
      000000EBH   SFRSYM    DATA     BYTE      PCA0CPL2
      000000F0H.5 SFRSYM    DATA     BIT       B_B5
      000000DCH   SFRSYM    DATA     BYTE      PCA0CPM2
      000000B8H   SFRSYM    DATA     BYTE      IP
      000000B9H   SFRSYM    DATA     BYTE      ADC0TK
      000000F0H.6 SFRSYM    DATA     BIT       B_B6
      000000C5H   SFRSYM    DATA     WORD      ADC0LT
      00000098H.5 SFRSYM    DATA     BIT       SCON0_MCE
      000000F0H.7 SFRSYM    DATA     BIT       B_B7
      000000E1H   SFRSYM    DATA     BYTE      XBR0
      000000C1H   SFRSYM    DATA     BYTE      SMB0CF
      000000E2H   SFRSYM    DATA     BYTE      XBR1
      000000C0H.5 SFRSYM    DATA     BIT       SMB0CN0_STA
      000000E3H   SFRSYM    DATA     BYTE      XBR2
      000000BBH   SFRSYM    DATA     BYTE      ADC0MX
LX51 LINKER/LOCATER V4.66.30.0                                                        04/06/2017  12:39:39  PAGE 70


      000000E0H   SFRSYM    DATA     BIT       ACC_ACC0
      000000D1H   SFRSYM    DATA     BYTE      REF0CN
      0000008EH   SFRSYM    DATA     BYTE      CKCON0
      000000E0H.1 SFRSYM    DATA     BIT       ACC_ACC1
      000000C9H   SFRSYM    DATA     BYTE      REG0CN
      000000DDH   SFRSYM    DATA     BYTE      CRC0IN
      000000C8H.2 SFRSYM    DATA     BIT       TMR2CN0_TR2
      000000E0H.2 SFRSYM    DATA     BIT       ACC_ACC2
      000000E0H.3 SFRSYM    DATA     BIT       ACC_ACC3
      00000081H   SFRSYM    DATA     BYTE      SP
      0000009DH   SFRSYM    DATA     BYTE      CMP0MD
      000000E0H.4 SFRSYM    DATA     BIT       ACC_ACC4
      000000B1H   SFRSYM    DATA     BYTE      LFO0CN
      000000ABH   SFRSYM    DATA     BYTE      CMP1MD
      000000D8H   SFRSYM    DATA     BIT       PCA0CN0_CCF0
      000000E0H.5 SFRSYM    DATA     BIT       ACC_ACC5
      000000D8H.1 SFRSYM    DATA     BIT       PCA0CN0_CCF1
      000000E0H.6 SFRSYM    DATA     BIT       ACC_ACC6
      000000CCH   SFRSYM    DATA     WORD      TMR2
      000000D8H.2 SFRSYM    DATA     BIT       PCA0CN0_CCF2
      000000E0H.7 SFRSYM    DATA     BIT       ACC_ACC7
      00000094H   SFRSYM    DATA     WORD      TMR3
      000000C0H.3 SFRSYM    DATA     BIT       SMB0CN0_ACKRQ
      000000FFH   SFRSYM    DATA     BYTE      VDM0CN
      000000F1H   SFRSYM    DATA     BYTE      P0MDIN
      00000098H.4 SFRSYM    DATA     BIT       SCON0_REN
      000000ACH   SFRSYM    DATA     BYTE      SMB0TC
      000000F2H   SFRSYM    DATA     BYTE      P1MDIN
      000000C0H.4 SFRSYM    DATA     BIT       SMB0CN0_STO
      000000FEH   SFRSYM    DATA     BYTE      P0MASK
      000000EEH   SFRSYM    DATA     BYTE      P1MASK
      000000D0H.3 SFRSYM    DATA     BIT       PSW_RS0
      000000D8H.7 SFRSYM    DATA     BIT       PCA0CN0_CF
      0000009EH   SFRSYM    DATA     BYTE      PCA0CENT
      000000F8H.4 SFRSYM    DATA     BIT       SPI0CN0_RXOVRN
      000000D0H.4 SFRSYM    DATA     BIT       PSW_RS1
      000000E8H.7 SFRSYM    DATA     BIT       ADC0CN0_ADEN
      00000089H   SFRSYM    DATA     BYTE      TMOD
      00000088H   SFRSYM    DATA     BYTE      TCON
      000000CFH   SFRSYM    DATA     BYTE      CRC0FLIP
      000000D0H   SFRSYM    DATA     BIT       PSW_PARITY
      000000A8H.4 SFRSYM    DATA     BIT       IE_ES0
      0000009FH   SFRSYM    DATA     BYTE      CMP0MX
      000000A8H.1 SFRSYM    DATA     BIT       IE_ET0
      000000AAH   SFRSYM    DATA     BYTE      CMP1MX
      000000A8H.3 SFRSYM    DATA     BIT       IE_ET1
      000000D4H   SFRSYM    DATA     BYTE      P0SKIP
      000000A8H.5 SFRSYM    DATA     BIT       IE_ET2
      000000D5H   SFRSYM    DATA     BYTE      P1SKIP
      000000E8H   SFRSYM    DATA     BYTE      ADC0CN0
      000000A8H   SFRSYM    DATA     BIT       IE_EX0
      000000B2H   SFRSYM    DATA     BYTE      ADC0CN1
      000000D8H.6 SFRSYM    DATA     BIT       PCA0CN0_CR
      000000A8H.2 SFRSYM    DATA     BIT       IE_EX1
      00000098H.7 SFRSYM    DATA     BIT       SCON0_SMODE
      000000B5H   SFRSYM    DATA     BYTE      DEVICEID
      000000A9H   SFRSYM    DATA     BYTE      CLKSEL
      000000F8H   SFRSYM    DATA     BIT       SPI0CN0_SPIEN
      000000F0H   SFRSYM    DATA     BYTE      B
      000000BEH   SFRSYM    DATA     BYTE      ADC0H
      000000D2H   SFRSYM    DATA     BYTE      CRC0AUTO
      000000E8H.6 SFRSYM    DATA     BIT       ADC0CN0_ADBMEN
LX51 LINKER/LOCATER V4.66.30.0                                                        04/06/2017  12:39:39  PAGE 71


      000000CAH   SFRSYM    DATA     WORD      TMR2RL
      000000BDH   SFRSYM    DATA     BYTE      ADC0L
      00000092H   SFRSYM    DATA     WORD      TMR3RL
      000000D8H   SFRSYM    DATA     BYTE      PCA0CN0
      000000E0H   SFRSYM    DATA     BYTE      ACC
      000000FBH   SFRSYM    DATA     WORD      PCA0CP0
      000000E9H   SFRSYM    DATA     WORD      PCA0CP1
      000000EBH   SFRSYM    DATA     WORD      PCA0CP2
      000000CEH   SFRSYM    DATA     BYTE      CRC0CN0
      0000008CH   SFRSYM    DATA     BYTE      TH0
      000000B8H.4 SFRSYM    DATA     BIT       IP_PS0
      0000008DH   SFRSYM    DATA     BYTE      TH1
      000000FAH   SFRSYM    DATA     BYTE      PCA0H
      000000B8H.1 SFRSYM    DATA     BIT       IP_PT0
      000000B8H.3 SFRSYM    DATA     BIT       IP_PT1
      000000C0H.2 SFRSYM    DATA     BIT       SMB0CN0_ARBLOST
      000000B8H.5 SFRSYM    DATA     BIT       IP_PT2
      0000008AH   SFRSYM    DATA     BYTE      TL0
      000000F8H.1 SFRSYM    DATA     BIT       SPI0CN0_TXBMT
      000000D0H.5 SFRSYM    DATA     BIT       PSW_F0
      000000A8H.6 SFRSYM    DATA     BIT       IE_ESPI0
      0000008BH   SFRSYM    DATA     BYTE      TL1
      000000F9H   SFRSYM    DATA     BYTE      PCA0L
      000000C0H   SFRSYM    DATA     BIT       SMB0CN0_SI
      000000D0H.1 SFRSYM    DATA     BIT       PSW_F1
      00000080H   SFRSYM    DATA     BIT       P0_B0
      000000B8H   SFRSYM    DATA     BIT       IP_PX0
      00000090H   SFRSYM    DATA     BIT       P1_B0
      00000080H.1 SFRSYM    DATA     BIT       P0_B1
      000000B8H.2 SFRSYM    DATA     BIT       IP_PX1
      0000009BH   SFRSYM    DATA     BYTE      CMP0CN0
      00000088H.1 SFRSYM    DATA     BIT       TCON_IE0
      000000A0H   SFRSYM    DATA     BIT       P2_B0
      00000090H.1 SFRSYM    DATA     BIT       P1_B1
      00000080H.2 SFRSYM    DATA     BIT       P0_B2
      000000BFH   SFRSYM    DATA     BYTE      CMP1CN0
      00000088H.3 SFRSYM    DATA     BIT       TCON_IE1
      000000A0H.1 SFRSYM    DATA     BIT       P2_B1
      00000090H.2 SFRSYM    DATA     BIT       P1_B2
      00000080H.3 SFRSYM    DATA     BIT       P0_B3
      000000C0H   SFRSYM    DATA     BYTE      SMB0CN0
      00000090H.3 SFRSYM    DATA     BIT       P1_B3
      00000080H.4 SFRSYM    DATA     BIT       P0_B4
      00000090H.4 SFRSYM    DATA     BIT       P1_B4
      00000080H.5 SFRSYM    DATA     BIT       P0_B5
      00000090H.5 SFRSYM    DATA     BIT       P1_B5
      00000080H.6 SFRSYM    DATA     BIT       P0_B6
      00000090H.6 SFRSYM    DATA     BIT       P1_B6
      00000080H.7 SFRSYM    DATA     BIT       P0_B7
      00000090H.7 SFRSYM    DATA     BIT       P1_B7
      00000083H   SFRSYM    DATA     BYTE      DPH
      000000C4H   SFRSYM    DATA     BYTE      ADC0GTH
      000000C8H.7 SFRSYM    DATA     BIT       TMR2CN0_TF2H
      000000C8H.3 SFRSYM    DATA     BIT       TMR2CN0_T2SPLIT
      000000D0H.6 SFRSYM    DATA     BIT       PSW_AC
      000000F8H   SFRSYM    DATA     BYTE      SPI0CN0
      000000C7H   SFRSYM    DATA     BYTE      HFO0CAL
      00000080H   SFRSYM    DATA     BIT       RCK
      00000088H.5 SFRSYM    DATA     BIT       TCON_TF0
      00000098H   SFRSYM    DATA     BIT       SCON0_RI
      00000082H   SFRSYM    DATA     BYTE      DPL
      00000080H.1 SFRSYM    DATA     BIT       SCK
LX51 LINKER/LOCATER V4.66.30.0                                                        04/06/2017  12:39:39  PAGE 72


      00000088H.7 SFRSYM    DATA     BIT       TCON_TF1
      00000099H   SFRSYM    DATA     BYTE      SBUF0
      00000087H   SFRSYM    DATA     BYTE      PCON0
      000000C3H   SFRSYM    DATA     BYTE      ADC0GTL
      000000C8H.6 SFRSYM    DATA     BIT       TMR2CN0_TF2L
      00000098H.1 SFRSYM    DATA     BIT       SCON0_TI
      000000E8H   SFRSYM    DATA     BIT       ADC0CN0_ADCM0
      000000C6H   SFRSYM    DATA     BYTE      ADC0LTH
      00000088H   SFRSYM    DATA     BIT       TCON_IT0
      000000E8H.1 SFRSYM    DATA     BIT       ADC0CN0_ADCM1
      000000EFH   SFRSYM    DATA     BYTE      RSTSRC
      000000FDH   SFRSYM    DATA     BYTE      P0MAT
      000000DEH   SFRSYM    DATA     BYTE      CRC0DAT
      00000088H.2 SFRSYM    DATA     BIT       TCON_IT1
      000000E8H.2 SFRSYM    DATA     BIT       ADC0CN0_ADCM2
      00000098H   SFRSYM    DATA     BYTE      SCON0
      000000F6H   SFRSYM    DATA     BYTE      PRTDRV
      000000EDH   SFRSYM    DATA     BYTE      P1MAT
      000000E8H.3 SFRSYM    DATA     BIT       ADC0CN0_ADWINT
      000000E8H.4 SFRSYM    DATA     BIT       ADC0CN0_ADBUSY
      000000D6H   SFRSYM    DATA     BYTE      SMB0ADM
      000000C5H   SFRSYM    DATA     BYTE      ADC0LTL
      000000F8H.5 SFRSYM    DATA     BIT       SPI0CN0_MODF
      000000B8H.6 SFRSYM    DATA     BIT       IP_PSPI0
      0000009CH   SFRSYM    DATA     BYTE      PCA0CLR
      000000C8H   SFRSYM    DATA     BYTE      TMR2CN0
      00000091H   SFRSYM    DATA     BYTE      TMR3CN0
      000000A0H   SFRSYM    DATA     BIT       SER
      000000D7H   SFRSYM    DATA     BYTE      SMB0ADR
      00000088H.4 SFRSYM    DATA     BIT       TCON_TR0
      000000C8H.4 SFRSYM    DATA     BIT       TMR2CN0_TF2CEN
      00000088H.6 SFRSYM    DATA     BIT       TCON_TR1
      000000C2H   SFRSYM    DATA     BYTE      SMB0DAT
      000000CDH   SFRSYM    DATA     BYTE      TMR2H
      000000A1H   SFRSYM    DATA     BYTE      SPI0CFG
      00000095H   SFRSYM    DATA     BYTE      TMR3H
      000000D3H   SFRSYM    DATA     BYTE      CRC0CNT
      00000096H   SFRSYM    DATA     BYTE      PCA0POL
      000000CCH   SFRSYM    DATA     BYTE      TMR2L
      000000F8H.7 SFRSYM    DATA     BIT       SPI0CN0_SPIF
      00000094H   SFRSYM    DATA     BYTE      TMR3L
      000000DFH   SFRSYM    DATA     BYTE      ADC0PWR
      000000A8H.7 SFRSYM    DATA     BIT       IE_EA
      000000C8H.5 SFRSYM    DATA     BIT       TMR2CN0_TF2LEN
      000000F8H.6 SFRSYM    DATA     BIT       SPI0CN0_WCOL
      000000F8H.2 SFRSYM    DATA     BIT       SPI0CN0_NSSMD0
      000000D0H.7 SFRSYM    DATA     BIT       PSW_CY
      000000A3H   SFRSYM    DATA     BYTE      SPI0DAT
      000000F8H.3 SFRSYM    DATA     BIT       SPI0CN0_NSSMD1
      000000BDH   SFRSYM    DATA     WORD      ADC0
      000000D0H   SFRSYM    DATA     BYTE      PSW
      000000F7H   SFRSYM    DATA     BYTE      PCA0PWM
      000000B6H   SFRSYM    DATA     BYTE      REVID
      000000B7H   SFRSYM    DATA     BYTE      FLKEY
      000000B3H   SFRSYM    DATA     BYTE      ADC0AC
      01001358H   SYMBOL    CODE     ---       _keysDeal
      01000056H   SYMBOL    CODE     ---       _keyDeal
      01001125H   SYMBOL    CODE     ---       keyGet

      01001125H   BLOCK     CODE     ---       LVL=0
      01001125H   BLOCK     CODE     NEAR LAB  LVL=1
      00000005H   SYMBOL    DATA     BYTE      key_val
LX51 LINKER/LOCATER V4.66.30.0                                                        04/06/2017  12:39:39  PAGE 73


      00000006H   SYMBOL    DATA     BYTE      i
      ---         BLOCKEND  ---      ---       LVL=1
      01001125H   LINE      CODE     ---       #49
      01001125H   LINE      CODE     ---       #50
      01001125H   LINE      CODE     ---       #51
      01001128H   LINE      CODE     ---       #52
      0100112AH   LINE      CODE     ---       #53
      0100112CH   LINE      CODE     ---       #54
      0100112CH   LINE      CODE     ---       #55
      01001148H   LINE      CODE     ---       #56
      01001148H   LINE      CODE     ---       #57
      01001162H   LINE      CODE     ---       #58
      01001162H   LINE      CODE     ---       #59
      01001174H   LINE      CODE     ---       #60
      01001174H   LINE      CODE     ---       #61
      01001174H   LINE      CODE     ---       #62
      0100117DH   LINE      CODE     ---       #63
      0100117FH   LINE      CODE     ---       #64
      ---         BLOCKEND  ---      ---       LVL=0

      01000D6BH   BLOCK     CODE     ---       LVL=0
      00000001H   SYMBOL    DATA     ---       _key_is_press
      00000010H   SYMBOL    DATA     ---       _key_short_press_proc_cb
      00000013H   SYMBOL    DATA     ---       _key_short_up_press_proc_cb
      00000016H   SYMBOL    DATA     ---       _key_long_press_proc_cb
      00000019H   SYMBOL    DATA     ---       _key_long_up_press_proc_cb
      0000001CH   SYMBOL    DATA     ---       _key_press_twice_proc_cb
      01000D6BH   BLOCK     CODE     NEAR LAB  LVL=1
      00000007H   SYMBOL    DATA     BYTE      i
      ---         BLOCKEND  ---      ---       LVL=1
      01000D6BH   LINE      CODE     ---       #66
      01000D6BH   LINE      CODE     ---       #72
      01000D6BH   LINE      CODE     ---       #73
      01000D6DH   LINE      CODE     ---       #74
      01000D77H   LINE      CODE     ---       #75
      01000D77H   LINE      CODE     ---       #76
      01000D78H   LINE      CODE     ---       #77
      01000D78H   LINE      CODE     ---       #78
      01000D8EH   LINE      CODE     ---       #79
      01000DA7H   LINE      CODE     ---       #80
      01000DC0H   LINE      CODE     ---       #81
      01000DD9H   LINE      CODE     ---       #82
      01000DF2H   LINE      CODE     ---       #83
      01000E0BH   LINE      CODE     ---       #84
      01000E29H   LINE      CODE     ---       #85
      01000E2FH   LINE      CODE     ---       #86
      01000E30H   LINE      CODE     ---       #87
      ---         BLOCKEND  ---      ---       LVL=0

      01000056H   BLOCK     CODE     ---       LVL=0
      00000009H   SYMBOL    DATA     BYTE      key_val
      0000000AH   SYMBOL    DATA     BYTE      key_id
      01000056H   LINE      CODE     ---       #88
      0100005AH   LINE      CODE     ---       #89
      0100005AH   LINE      CODE     ---       #90
      0100006CH   LINE      CODE     ---       #91
      0100007EH   LINE      CODE     ---       #92
      01000099H   LINE      CODE     ---       #93
      01000099H   LINE      CODE     ---       #94
      010000B4H   LINE      CODE     ---       #95
      010000B4H   LINE      CODE     ---       #96
      010000CAH   LINE      CODE     ---       #97
LX51 LINKER/LOCATER V4.66.30.0                                                        04/06/2017  12:39:39  PAGE 74


      010000CDH   LINE      CODE     ---       #99
      010000CDH   LINE      CODE     ---       #100
      010000E8H   LINE      CODE     ---       #101
      010000E8H   LINE      CODE     ---       #102
      010000F9H   LINE      CODE     ---       #103
      01000118H   LINE      CODE     ---       #104
      01000118H   LINE      CODE     ---       #105
      01000125H   LINE      CODE     ---       #106
      01000125H   LINE      CODE     ---       #107
      01000128H   LINE      CODE     ---       #109
      01000128H   LINE      CODE     ---       #110
      01000146H   LINE      CODE     ---       #111
      01000146H   LINE      CODE     ---       #112
      01000165H   LINE      CODE     ---       #113
      01000165H   LINE      CODE     ---       #114
      01000178H   LINE      CODE     ---       #115
      01000178H   LINE      CODE     ---       #116
      01000189H   LINE      CODE     ---       #117
      0100018CH   LINE      CODE     ---       #119
      0100018CH   LINE      CODE     ---       #120
      0100019FH   LINE      CODE     ---       #121
      0100019FH   LINE      CODE     ---       #123
      010001BBH   LINE      CODE     ---       #124
      010001BBH   LINE      CODE     ---       #125
      010001D3H   LINE      CODE     ---       #126
      010001D3H   LINE      CODE     ---       #127
      010001D3H   LINE      CODE     ---       #128
      010001E4H   LINE      CODE     ---       #129
      010001F6H   LINE      CODE     ---       #130
      010001F6H   LINE      CODE     ---       #131
      010001F8H   LINE      CODE     ---       #133
      010001F8H   LINE      CODE     ---       #134
      01000214H   LINE      CODE     ---       #135
      01000214H   LINE      CODE     ---       #136
      0100022CH   LINE      CODE     ---       #137
      0100022CH   LINE      CODE     ---       #138
      0100022CH   LINE      CODE     ---       #139
      0100022CH   LINE      CODE     ---       #140
      0100022CH   LINE      CODE     ---       #141
      0100023EH   LINE      CODE     ---       #142
      01000251H   LINE      CODE     ---       #143
      01000251H   LINE      CODE     ---       #144
      01000254H   LINE      CODE     ---       #146
      01000254H   LINE      CODE     ---       #147
      0100026AH   LINE      CODE     ---       #148
      01000285H   LINE      CODE     ---       #149
      01000285H   LINE      CODE     ---       #150
      01000298H   LINE      CODE     ---       #151
      010002B7H   LINE      CODE     ---       #152
      010002B7H   LINE      CODE     ---       #153
      010002E0H   LINE      CODE     ---       #155
      010002E0H   LINE      CODE     ---       #156
      010002F2H   LINE      CODE     ---       #157
      01000303H   LINE      CODE     ---       #158
      01000314H   LINE      CODE     ---       #160
      01000333H   LINE      CODE     ---       #161
      01000333H   LINE      CODE     ---       #162
      01000340H   LINE      CODE     ---       #163
      01000340H   LINE      CODE     ---       #164
      01000343H   LINE      CODE     ---       #166
      01000343H   LINE      CODE     ---       #167
      01000354H   LINE      CODE     ---       #168
LX51 LINKER/LOCATER V4.66.30.0                                                        04/06/2017  12:39:39  PAGE 75


      01000366H   LINE      CODE     ---       #169
      01000377H   LINE      CODE     ---       #170
      01000377H   LINE      CODE     ---       #171
      0100037AH   LINE      CODE     ---       #173
      0100037AH   LINE      CODE     ---       #174
      01000396H   LINE      CODE     ---       #175
      01000396H   LINE      CODE     ---       #176
      010003A3H   LINE      CODE     ---       #177
      010003A3H   LINE      CODE     ---       #178
      010003A3H   LINE      CODE     ---       #179
      010003A5H   LINE      CODE     ---       #180
      010003C1H   LINE      CODE     ---       #181
      010003C1H   LINE      CODE     ---       #182
      010003D2H   LINE      CODE     ---       #183
      010003EEH   LINE      CODE     ---       #184
      010003EEH   LINE      CODE     ---       #185
      01000406H   LINE      CODE     ---       #186
      01000406H   LINE      CODE     ---       #187
      01000406H   LINE      CODE     ---       #188
      01000406H   LINE      CODE     ---       #189
      01000425H   LINE      CODE     ---       #190
      01000425H   LINE      CODE     ---       #191
      0100046AH   LINE      CODE     ---       #194
      0100046AH   LINE      CODE     ---       #195
      0100047BH   LINE      CODE     ---       #196
      01000497H   LINE      CODE     ---       #197
      01000497H   LINE      CODE     ---       #198
      010004AFH   LINE      CODE     ---       #199
      010004AFH   LINE      CODE     ---       #200
      010004AFH   LINE      CODE     ---       #201
      010004D8H   LINE      CODE     ---       #203
      010004D8H   LINE      CODE     ---       #204
      010004E9H   LINE      CODE     ---       #205
      01000505H   LINE      CODE     ---       #206
      01000505H   LINE      CODE     ---       #207
      0100051DH   LINE      CODE     ---       #208
      0100051DH   LINE      CODE     ---       #209
      0100051DH   LINE      CODE     ---       #210
      0100051DH   LINE      CODE     ---       #211
      ---         BLOCKEND  ---      ---       LVL=0

      01001358H   BLOCK     CODE     ---       LVL=0
      00000005H   SYMBOL    DATA     BYTE      key_val
      0100135AH   BLOCK     CODE     NEAR LAB  LVL=1
      00000006H   SYMBOL    DATA     BYTE      i
      00000007H   SYMBOL    DATA     BYTE      timer_cnt
      00000008H   SYMBOL    DATA     BYTE      key_temp
      ---         BLOCKEND  ---      ---       LVL=1
      01001358H   LINE      CODE     ---       #213
      0100135AH   LINE      CODE     ---       #214
      0100135AH   LINE      CODE     ---       #215
      0100135DH   LINE      CODE     ---       #216
      01001360H   LINE      CODE     ---       #217
      01001362H   LINE      CODE     ---       #218
      01001364H   LINE      CODE     ---       #219
      01001364H   LINE      CODE     ---       #220
      01001375H   LINE      CODE     ---       #221
      0100137BH   LINE      CODE     ---       #222
      01001384H   LINE      CODE     ---       #223
      ---         BLOCKEND  ---      ---       LVL=0

      01000003H   BLOCK     CODE     ---       LVL=0
LX51 LINKER/LOCATER V4.66.30.0                                                        04/06/2017  12:39:39  PAGE 76


      01000003H   BLOCK     CODE     NEAR LAB  LVL=1
      00000007H   SYMBOL    DATA     BYTE      key_val
      ---         BLOCKEND  ---      ---       LVL=1
      01000003H   LINE      CODE     ---       #224
      01000003H   LINE      CODE     ---       #225
      01000003H   LINE      CODE     ---       #226
      01000005H   LINE      CODE     ---       #227
      01000008H   LINE      CODE     ---       #228
      ---         BLOCKEND  ---      ---       LVL=0

      ---         MODULE    ---      ---       ?C_INIT
      0100106DH   PUBLIC    CODE     ---       ?C_START

      ---         MODULE    ---      ---       ?C?COPY
      010005EEH   PUBLIC    CODE     ---       ?C?COPY

      ---         MODULE    ---      ---       ?C?CSTOPTR
      01000614H   PUBLIC    CODE     ---       ?C?CSTOPTR

      ---         MODULE    ---      ---       ?C?IILDX
      01000636H   PUBLIC    CODE     ---       ?C?IILDX

      ---         MODULE    ---      ---       ?C?LMUL
      0100064CH   PUBLIC    CODE     ---       ?C?LMUL

      ---         MODULE    ---      ---       ?C?ULDIV
      010006D7H   PUBLIC    CODE     ---       ?C?ULDIV

      ---         MODULE    ---      ---       ?C?ULCMP
      01000769H   PUBLIC    CODE     ---       ?C?ULCMP

      ---         MODULE    ---      ---       ?C?LLDIDATA
      0100077AH   PUBLIC    CODE     ---       ?C?LLDIDATA

      ---         MODULE    ---      ---       ?C?LLDIDATA0
      01000786H   PUBLIC    CODE     ---       ?C?LLDIDATA0

      ---         MODULE    ---      ---       ?C?LSTIDATA
      01000793H   PUBLIC    CODE     ---       ?C?LSTIDATA

      ---         MODULE    ---      ---       ?C?LSTKIDATA
      0100079FH   PUBLIC    CODE     ---       ?C?LSTKIDATA

      ---         MODULE    ---      ---       ?C?ICALL
      010007B8H   PUBLIC    CODE     ---       ?C?ICALL
      010007BCH   PUBLIC    CODE     ---       ?C?ICALL2



*** ERROR L107: ADDRESS SPACE OVERFLOW
    SPACE:   DATA
    SEGMENT: _DATA_GROUP_
    LENGTH:  00001FH   

Program Size: data=121.4 xdata=169 const=44 code=6140
LX51 RUN COMPLETE.  0 WARNING(S),  1 ERROR(S)
